
LowPower_G031G8U6.elf:     file format elf32-littlearm

Sections:
Idx Name          Size      VMA       LMA       File off  Algn
  0 .isr_vector   000000bc  08000000  08000000  00010000  2**0
                  CONTENTS, ALLOC, LOAD, READONLY, DATA
  1 .text         00002a20  080000bc  080000bc  000100bc  2**2
                  CONTENTS, ALLOC, LOAD, READONLY, CODE
  2 .rodata       000000a8  08002adc  08002adc  00012adc  2**2
                  CONTENTS, ALLOC, LOAD, READONLY, DATA
  3 .ARM.extab    00000000  08002b84  08002b84  0002000c  2**0
                  CONTENTS
  4 .ARM          00000000  08002b84  08002b84  0002000c  2**0
                  CONTENTS
  5 .preinit_array 00000000  08002b84  08002b84  0002000c  2**0
                  CONTENTS, ALLOC, LOAD, DATA
  6 .init_array   00000004  08002b84  08002b84  00012b84  2**2
                  CONTENTS, ALLOC, LOAD, DATA
  7 .fini_array   00000004  08002b88  08002b88  00012b88  2**2
                  CONTENTS, ALLOC, LOAD, DATA
  8 .data         0000000c  20000000  08002b8c  00020000  2**2
                  CONTENTS, ALLOC, LOAD, DATA
  9 .bss          00000130  2000000c  08002b98  0002000c  2**2
                  ALLOC
 10 ._user_heap_stack 00000604  2000013c  08002b98  0002013c  2**0
                  ALLOC
 11 .ARM.attributes 00000028  00000000  00000000  0002000c  2**0
                  CONTENTS, READONLY
 12 .debug_info   00012394  00000000  00000000  00020034  2**0
                  CONTENTS, READONLY, DEBUGGING, OCTETS
 13 .debug_abbrev 00002670  00000000  00000000  000323c8  2**0
                  CONTENTS, READONLY, DEBUGGING, OCTETS
 14 .debug_loc    0000d0fd  00000000  00000000  00034a38  2**0
                  CONTENTS, READONLY, DEBUGGING, OCTETS
 15 .debug_aranges 00000de0  00000000  00000000  00041b38  2**3
                  CONTENTS, READONLY, DEBUGGING, OCTETS
 16 .debug_ranges 00000d70  00000000  00000000  00042918  2**3
                  CONTENTS, READONLY, DEBUGGING, OCTETS
 17 .debug_macro  000173d6  00000000  00000000  00043688  2**0
                  CONTENTS, READONLY, DEBUGGING, OCTETS
 18 .debug_line   00013e3c  00000000  00000000  0005aa5e  2**0
                  CONTENTS, READONLY, DEBUGGING, OCTETS
 19 .debug_str    000902e0  00000000  00000000  0006e89a  2**0
                  CONTENTS, READONLY, DEBUGGING, OCTETS
 20 .comment      00000053  00000000  00000000  000feb7a  2**0
                  CONTENTS, READONLY
 21 .debug_frame  000023dc  00000000  00000000  000febd0  2**2
                  CONTENTS, READONLY, DEBUGGING, OCTETS

Disassembly of section .text:

080000bc <__do_global_dtors_aux>:
 80000bc:	b510      	push	{r4, lr}
 80000be:	4c06      	ldr	r4, [pc, #24]	; (80000d8 <__do_global_dtors_aux+0x1c>)
 80000c0:	7823      	ldrb	r3, [r4, #0]
 80000c2:	2b00      	cmp	r3, #0
 80000c4:	d107      	bne.n	80000d6 <__do_global_dtors_aux+0x1a>
 80000c6:	4b05      	ldr	r3, [pc, #20]	; (80000dc <__do_global_dtors_aux+0x20>)
 80000c8:	2b00      	cmp	r3, #0
 80000ca:	d002      	beq.n	80000d2 <__do_global_dtors_aux+0x16>
 80000cc:	4804      	ldr	r0, [pc, #16]	; (80000e0 <__do_global_dtors_aux+0x24>)
 80000ce:	e000      	b.n	80000d2 <__do_global_dtors_aux+0x16>
 80000d0:	bf00      	nop
 80000d2:	2301      	movs	r3, #1
 80000d4:	7023      	strb	r3, [r4, #0]
 80000d6:	bd10      	pop	{r4, pc}
 80000d8:	2000000c 	.word	0x2000000c
 80000dc:	00000000 	.word	0x00000000
 80000e0:	08002ac4 	.word	0x08002ac4

080000e4 <frame_dummy>:
 80000e4:	4b04      	ldr	r3, [pc, #16]	; (80000f8 <frame_dummy+0x14>)
 80000e6:	b510      	push	{r4, lr}
 80000e8:	2b00      	cmp	r3, #0
 80000ea:	d003      	beq.n	80000f4 <frame_dummy+0x10>
 80000ec:	4903      	ldr	r1, [pc, #12]	; (80000fc <frame_dummy+0x18>)
 80000ee:	4804      	ldr	r0, [pc, #16]	; (8000100 <frame_dummy+0x1c>)
 80000f0:	e000      	b.n	80000f4 <frame_dummy+0x10>
 80000f2:	bf00      	nop
 80000f4:	bd10      	pop	{r4, pc}
 80000f6:	46c0      	nop			; (mov r8, r8)
 80000f8:	00000000 	.word	0x00000000
 80000fc:	20000010 	.word	0x20000010
 8000100:	08002ac4 	.word	0x08002ac4

08000104 <__udivsi3>:
 8000104:	2200      	movs	r2, #0
 8000106:	0843      	lsrs	r3, r0, #1
 8000108:	428b      	cmp	r3, r1
 800010a:	d374      	bcc.n	80001f6 <__udivsi3+0xf2>
 800010c:	0903      	lsrs	r3, r0, #4
 800010e:	428b      	cmp	r3, r1
 8000110:	d35f      	bcc.n	80001d2 <__udivsi3+0xce>
 8000112:	0a03      	lsrs	r3, r0, #8
 8000114:	428b      	cmp	r3, r1
 8000116:	d344      	bcc.n	80001a2 <__udivsi3+0x9e>
 8000118:	0b03      	lsrs	r3, r0, #12
 800011a:	428b      	cmp	r3, r1
 800011c:	d328      	bcc.n	8000170 <__udivsi3+0x6c>
 800011e:	0c03      	lsrs	r3, r0, #16
 8000120:	428b      	cmp	r3, r1
 8000122:	d30d      	bcc.n	8000140 <__udivsi3+0x3c>
 8000124:	22ff      	movs	r2, #255	; 0xff
 8000126:	0209      	lsls	r1, r1, #8
 8000128:	ba12      	rev	r2, r2
 800012a:	0c03      	lsrs	r3, r0, #16
 800012c:	428b      	cmp	r3, r1
 800012e:	d302      	bcc.n	8000136 <__udivsi3+0x32>
 8000130:	1212      	asrs	r2, r2, #8
 8000132:	0209      	lsls	r1, r1, #8
 8000134:	d065      	beq.n	8000202 <__udivsi3+0xfe>
 8000136:	0b03      	lsrs	r3, r0, #12
 8000138:	428b      	cmp	r3, r1
 800013a:	d319      	bcc.n	8000170 <__udivsi3+0x6c>
 800013c:	e000      	b.n	8000140 <__udivsi3+0x3c>
 800013e:	0a09      	lsrs	r1, r1, #8
 8000140:	0bc3      	lsrs	r3, r0, #15
 8000142:	428b      	cmp	r3, r1
 8000144:	d301      	bcc.n	800014a <__udivsi3+0x46>
 8000146:	03cb      	lsls	r3, r1, #15
 8000148:	1ac0      	subs	r0, r0, r3
 800014a:	4152      	adcs	r2, r2
 800014c:	0b83      	lsrs	r3, r0, #14
 800014e:	428b      	cmp	r3, r1
 8000150:	d301      	bcc.n	8000156 <__udivsi3+0x52>
 8000152:	038b      	lsls	r3, r1, #14
 8000154:	1ac0      	subs	r0, r0, r3
 8000156:	4152      	adcs	r2, r2
 8000158:	0b43      	lsrs	r3, r0, #13
 800015a:	428b      	cmp	r3, r1
 800015c:	d301      	bcc.n	8000162 <__udivsi3+0x5e>
 800015e:	034b      	lsls	r3, r1, #13
 8000160:	1ac0      	subs	r0, r0, r3
 8000162:	4152      	adcs	r2, r2
 8000164:	0b03      	lsrs	r3, r0, #12
 8000166:	428b      	cmp	r3, r1
 8000168:	d301      	bcc.n	800016e <__udivsi3+0x6a>
 800016a:	030b      	lsls	r3, r1, #12
 800016c:	1ac0      	subs	r0, r0, r3
 800016e:	4152      	adcs	r2, r2
 8000170:	0ac3      	lsrs	r3, r0, #11
 8000172:	428b      	cmp	r3, r1
 8000174:	d301      	bcc.n	800017a <__udivsi3+0x76>
 8000176:	02cb      	lsls	r3, r1, #11
 8000178:	1ac0      	subs	r0, r0, r3
 800017a:	4152      	adcs	r2, r2
 800017c:	0a83      	lsrs	r3, r0, #10
 800017e:	428b      	cmp	r3, r1
 8000180:	d301      	bcc.n	8000186 <__udivsi3+0x82>
 8000182:	028b      	lsls	r3, r1, #10
 8000184:	1ac0      	subs	r0, r0, r3
 8000186:	4152      	adcs	r2, r2
 8000188:	0a43      	lsrs	r3, r0, #9
 800018a:	428b      	cmp	r3, r1
 800018c:	d301      	bcc.n	8000192 <__udivsi3+0x8e>
 800018e:	024b      	lsls	r3, r1, #9
 8000190:	1ac0      	subs	r0, r0, r3
 8000192:	4152      	adcs	r2, r2
 8000194:	0a03      	lsrs	r3, r0, #8
 8000196:	428b      	cmp	r3, r1
 8000198:	d301      	bcc.n	800019e <__udivsi3+0x9a>
 800019a:	020b      	lsls	r3, r1, #8
 800019c:	1ac0      	subs	r0, r0, r3
 800019e:	4152      	adcs	r2, r2
 80001a0:	d2cd      	bcs.n	800013e <__udivsi3+0x3a>
 80001a2:	09c3      	lsrs	r3, r0, #7
 80001a4:	428b      	cmp	r3, r1
 80001a6:	d301      	bcc.n	80001ac <__udivsi3+0xa8>
 80001a8:	01cb      	lsls	r3, r1, #7
 80001aa:	1ac0      	subs	r0, r0, r3
 80001ac:	4152      	adcs	r2, r2
 80001ae:	0983      	lsrs	r3, r0, #6
 80001b0:	428b      	cmp	r3, r1
 80001b2:	d301      	bcc.n	80001b8 <__udivsi3+0xb4>
 80001b4:	018b      	lsls	r3, r1, #6
 80001b6:	1ac0      	subs	r0, r0, r3
 80001b8:	4152      	adcs	r2, r2
 80001ba:	0943      	lsrs	r3, r0, #5
 80001bc:	428b      	cmp	r3, r1
 80001be:	d301      	bcc.n	80001c4 <__udivsi3+0xc0>
 80001c0:	014b      	lsls	r3, r1, #5
 80001c2:	1ac0      	subs	r0, r0, r3
 80001c4:	4152      	adcs	r2, r2
 80001c6:	0903      	lsrs	r3, r0, #4
 80001c8:	428b      	cmp	r3, r1
 80001ca:	d301      	bcc.n	80001d0 <__udivsi3+0xcc>
 80001cc:	010b      	lsls	r3, r1, #4
 80001ce:	1ac0      	subs	r0, r0, r3
 80001d0:	4152      	adcs	r2, r2
 80001d2:	08c3      	lsrs	r3, r0, #3
 80001d4:	428b      	cmp	r3, r1
 80001d6:	d301      	bcc.n	80001dc <__udivsi3+0xd8>
 80001d8:	00cb      	lsls	r3, r1, #3
 80001da:	1ac0      	subs	r0, r0, r3
 80001dc:	4152      	adcs	r2, r2
 80001de:	0883      	lsrs	r3, r0, #2
 80001e0:	428b      	cmp	r3, r1
 80001e2:	d301      	bcc.n	80001e8 <__udivsi3+0xe4>
 80001e4:	008b      	lsls	r3, r1, #2
 80001e6:	1ac0      	subs	r0, r0, r3
 80001e8:	4152      	adcs	r2, r2
 80001ea:	0843      	lsrs	r3, r0, #1
 80001ec:	428b      	cmp	r3, r1
 80001ee:	d301      	bcc.n	80001f4 <__udivsi3+0xf0>
 80001f0:	004b      	lsls	r3, r1, #1
 80001f2:	1ac0      	subs	r0, r0, r3
 80001f4:	4152      	adcs	r2, r2
 80001f6:	1a41      	subs	r1, r0, r1
 80001f8:	d200      	bcs.n	80001fc <__udivsi3+0xf8>
 80001fa:	4601      	mov	r1, r0
 80001fc:	4152      	adcs	r2, r2
 80001fe:	4610      	mov	r0, r2
 8000200:	4770      	bx	lr
 8000202:	e7ff      	b.n	8000204 <__udivsi3+0x100>
 8000204:	b501      	push	{r0, lr}
 8000206:	2000      	movs	r0, #0
 8000208:	f000 f806 	bl	8000218 <__aeabi_idiv0>
 800020c:	bd02      	pop	{r1, pc}
 800020e:	46c0      	nop			; (mov r8, r8)

08000210 <__aeabi_uidivmod>:
 8000210:	2900      	cmp	r1, #0
 8000212:	d0f7      	beq.n	8000204 <__udivsi3+0x100>
 8000214:	e776      	b.n	8000104 <__udivsi3>
 8000216:	4770      	bx	lr

08000218 <__aeabi_idiv0>:
 8000218:	4770      	bx	lr
 800021a:	46c0      	nop			; (mov r8, r8)

0800021c <led_set_RGB>:
static inline uint8_t scale8(uint8_t x, uint8_t scale) {
  return ((uint16_t)x * scale) >> 8;
}

// Set a single color (RGB) to index
void led_set_RGB(uint8_t index, uint8_t r, uint8_t g, uint8_t b) {
 800021c:	b530      	push	{r4, r5, lr}
 800021e:	0005      	movs	r5, r0
  rgb_arr[4 * index] = scale8(g, 0xB0); // g;
  rgb_arr[4 * index + 1] = r;
  rgb_arr[4 * index + 2] = scale8(b, 0xF0); // b;
  rgb_arr[4 * index + 3] = 0;
#else // WS2812B
  rgb_arr[3 * index] = scale8(g, 0xB0); // g;
 8000220:	0040      	lsls	r0, r0, #1
 8000222:	1940      	adds	r0, r0, r5
  return ((uint16_t)x * scale) >> 8;
 8000224:	24b0      	movs	r4, #176	; 0xb0
 8000226:	4354      	muls	r4, r2
 8000228:	0a24      	lsrs	r4, r4, #8
  rgb_arr[3 * index] = scale8(g, 0xB0); // g;
 800022a:	4d05      	ldr	r5, [pc, #20]	; (8000240 <led_set_RGB+0x24>)
 800022c:	542c      	strb	r4, [r5, r0]
  rgb_arr[3 * index + 1] = r;
 800022e:	1c42      	adds	r2, r0, #1
 8000230:	54a9      	strb	r1, [r5, r2]
  rgb_arr[3 * index + 2] = scale8(b, 0xF0); // b;
 8000232:	3002      	adds	r0, #2
  return ((uint16_t)x * scale) >> 8;
 8000234:	011a      	lsls	r2, r3, #4
 8000236:	1ad3      	subs	r3, r2, r3
 8000238:	111b      	asrs	r3, r3, #4
  rgb_arr[3 * index + 2] = scale8(b, 0xF0); // b;
 800023a:	542b      	strb	r3, [r5, r0]
#endif // End SK6812 WS2812B case differentiation
}
 800023c:	bd30      	pop	{r4, r5, pc}
 800023e:	46c0      	nop			; (mov r8, r8)
 8000240:	2000002c 	.word	0x2000002c

08000244 <led_render>:
void led_set_all_RGBW(uint8_t r, uint8_t g, uint8_t b, uint8_t w) {
  for(uint_fast8_t i = 0; i < NUM_PIXELS; ++i) led_set_RGBW(i, r, g, b, w);
}

// Shuttle the data to the LEDs!
void led_render() {
 8000244:	b510      	push	{r4, lr}
  if(wr_buf_p != 0 || hdma_tim1_ch1.State != HAL_DMA_STATE_READY) {
 8000246:	4b37      	ldr	r3, [pc, #220]	; (8000324 <led_render+0xe0>)
 8000248:	681b      	ldr	r3, [r3, #0]
 800024a:	2b00      	cmp	r3, #0
 800024c:	d105      	bne.n	800025a <led_render+0x16>
 800024e:	4936      	ldr	r1, [pc, #216]	; (8000328 <led_render+0xe4>)
 8000250:	2225      	movs	r2, #37	; 0x25
 8000252:	5c8a      	ldrb	r2, [r1, r2]
 8000254:	2a01      	cmp	r2, #1
 8000256:	d021      	beq.n	800029c <led_render+0x58>
 8000258:	e006      	b.n	8000268 <led_render+0x24>
 800025a:	2300      	movs	r3, #0
 800025c:	e004      	b.n	8000268 <led_render+0x24>
    // Ongoing transfer, cancel!
    for(uint8_t i = 0; i < WR_BUF_LEN; ++i) wr_buf[i] = 0;
 800025e:	4a33      	ldr	r2, [pc, #204]	; (800032c <led_render+0xe8>)
 8000260:	2100      	movs	r1, #0
 8000262:	54d1      	strb	r1, [r2, r3]
 8000264:	3301      	adds	r3, #1
 8000266:	b2db      	uxtb	r3, r3
 8000268:	2b2f      	cmp	r3, #47	; 0x2f
 800026a:	d9f8      	bls.n	800025e <led_render+0x1a>
    wr_buf_p = 0;
 800026c:	4b2d      	ldr	r3, [pc, #180]	; (8000324 <led_render+0xe0>)
 800026e:	2200      	movs	r2, #0
 8000270:	601a      	str	r2, [r3, #0]
    HAL_TIM_PWM_Stop_DMA(&htim1, TIM_CHANNEL_1);
 8000272:	2100      	movs	r1, #0
 8000274:	482e      	ldr	r0, [pc, #184]	; (8000330 <led_render+0xec>)
 8000276:	f002 fabf 	bl	80027f8 <HAL_TIM_PWM_Stop_DMA>
  }
#endif // End SK6812 WS2812B case differentiation

  HAL_TIM_PWM_Start_DMA(&htim1, TIM_CHANNEL_1, (uint32_t *)wr_buf, WR_BUF_LEN);
  wr_buf_p = 2; // Since we're ready for the next buffer
}
 800027a:	bd10      	pop	{r4, pc}
    wr_buf[i     ] = PWM_LO << (((rgb_arr[0] << i) & 0x80) > 0);
 800027c:	2113      	movs	r1, #19
 800027e:	e015      	b.n	80002ac <led_render+0x68>
    wr_buf[i +  8] = PWM_LO << (((rgb_arr[1] << i) & 0x80) > 0);
 8000280:	2013      	movs	r0, #19
 8000282:	e01b      	b.n	80002bc <led_render+0x78>
    wr_buf[i + 16] = PWM_LO << (((rgb_arr[2] << i) & 0x80) > 0);
 8000284:	2013      	movs	r0, #19
 8000286:	e023      	b.n	80002d0 <led_render+0x8c>
    wr_buf[i + 24] = PWM_LO << (((rgb_arr[3] << i) & 0x80) > 0);
 8000288:	2013      	movs	r0, #19
 800028a:	e02b      	b.n	80002e4 <led_render+0xa0>
    wr_buf[i + 32] = PWM_LO << (((rgb_arr[4] << i) & 0x80) > 0);
 800028c:	2013      	movs	r0, #19
 800028e:	e033      	b.n	80002f8 <led_render+0xb4>
    wr_buf[i + 40] = PWM_LO << (((rgb_arr[5] << i) & 0x80) > 0);
 8000290:	2013      	movs	r0, #19
 8000292:	001a      	movs	r2, r3
 8000294:	3228      	adds	r2, #40	; 0x28
 8000296:	4925      	ldr	r1, [pc, #148]	; (800032c <led_render+0xe8>)
 8000298:	5488      	strb	r0, [r1, r2]
  for(uint_fast8_t i = 0; i < 8; ++i) {
 800029a:	3301      	adds	r3, #1
 800029c:	2b07      	cmp	r3, #7
 800029e:	d836      	bhi.n	800030e <led_render+0xca>
    wr_buf[i     ] = PWM_LO << (((rgb_arr[0] << i) & 0x80) > 0);
 80002a0:	4a24      	ldr	r2, [pc, #144]	; (8000334 <led_render+0xf0>)
 80002a2:	7812      	ldrb	r2, [r2, #0]
 80002a4:	409a      	lsls	r2, r3
 80002a6:	0612      	lsls	r2, r2, #24
 80002a8:	d5e8      	bpl.n	800027c <led_render+0x38>
 80002aa:	2126      	movs	r1, #38	; 0x26
 80002ac:	4a1f      	ldr	r2, [pc, #124]	; (800032c <led_render+0xe8>)
 80002ae:	54d1      	strb	r1, [r2, r3]
    wr_buf[i +  8] = PWM_LO << (((rgb_arr[1] << i) & 0x80) > 0);
 80002b0:	4a20      	ldr	r2, [pc, #128]	; (8000334 <led_render+0xf0>)
 80002b2:	7852      	ldrb	r2, [r2, #1]
 80002b4:	409a      	lsls	r2, r3
 80002b6:	0612      	lsls	r2, r2, #24
 80002b8:	d5e2      	bpl.n	8000280 <led_render+0x3c>
 80002ba:	2026      	movs	r0, #38	; 0x26
 80002bc:	001a      	movs	r2, r3
 80002be:	3208      	adds	r2, #8
 80002c0:	491a      	ldr	r1, [pc, #104]	; (800032c <led_render+0xe8>)
 80002c2:	5488      	strb	r0, [r1, r2]
    wr_buf[i + 16] = PWM_LO << (((rgb_arr[2] << i) & 0x80) > 0);
 80002c4:	4a1b      	ldr	r2, [pc, #108]	; (8000334 <led_render+0xf0>)
 80002c6:	7892      	ldrb	r2, [r2, #2]
 80002c8:	409a      	lsls	r2, r3
 80002ca:	0612      	lsls	r2, r2, #24
 80002cc:	d5da      	bpl.n	8000284 <led_render+0x40>
 80002ce:	2026      	movs	r0, #38	; 0x26
 80002d0:	001a      	movs	r2, r3
 80002d2:	3210      	adds	r2, #16
 80002d4:	4915      	ldr	r1, [pc, #84]	; (800032c <led_render+0xe8>)
 80002d6:	5488      	strb	r0, [r1, r2]
    wr_buf[i + 24] = PWM_LO << (((rgb_arr[3] << i) & 0x80) > 0);
 80002d8:	4a16      	ldr	r2, [pc, #88]	; (8000334 <led_render+0xf0>)
 80002da:	78d2      	ldrb	r2, [r2, #3]
 80002dc:	409a      	lsls	r2, r3
 80002de:	0612      	lsls	r2, r2, #24
 80002e0:	d5d2      	bpl.n	8000288 <led_render+0x44>
 80002e2:	2026      	movs	r0, #38	; 0x26
 80002e4:	001a      	movs	r2, r3
 80002e6:	3218      	adds	r2, #24
 80002e8:	4910      	ldr	r1, [pc, #64]	; (800032c <led_render+0xe8>)
 80002ea:	5488      	strb	r0, [r1, r2]
    wr_buf[i + 32] = PWM_LO << (((rgb_arr[4] << i) & 0x80) > 0);
 80002ec:	4a11      	ldr	r2, [pc, #68]	; (8000334 <led_render+0xf0>)
 80002ee:	7912      	ldrb	r2, [r2, #4]
 80002f0:	409a      	lsls	r2, r3
 80002f2:	0612      	lsls	r2, r2, #24
 80002f4:	d5ca      	bpl.n	800028c <led_render+0x48>
 80002f6:	2026      	movs	r0, #38	; 0x26
 80002f8:	001a      	movs	r2, r3
 80002fa:	3220      	adds	r2, #32
 80002fc:	490b      	ldr	r1, [pc, #44]	; (800032c <led_render+0xe8>)
 80002fe:	5488      	strb	r0, [r1, r2]
    wr_buf[i + 40] = PWM_LO << (((rgb_arr[5] << i) & 0x80) > 0);
 8000300:	4a0c      	ldr	r2, [pc, #48]	; (8000334 <led_render+0xf0>)
 8000302:	7952      	ldrb	r2, [r2, #5]
 8000304:	409a      	lsls	r2, r3
 8000306:	0612      	lsls	r2, r2, #24
 8000308:	d5c2      	bpl.n	8000290 <led_render+0x4c>
 800030a:	2026      	movs	r0, #38	; 0x26
 800030c:	e7c1      	b.n	8000292 <led_render+0x4e>
  HAL_TIM_PWM_Start_DMA(&htim1, TIM_CHANNEL_1, (uint32_t *)wr_buf, WR_BUF_LEN);
 800030e:	2330      	movs	r3, #48	; 0x30
 8000310:	4a06      	ldr	r2, [pc, #24]	; (800032c <led_render+0xe8>)
 8000312:	2100      	movs	r1, #0
 8000314:	4806      	ldr	r0, [pc, #24]	; (8000330 <led_render+0xec>)
 8000316:	f002 f913 	bl	8002540 <HAL_TIM_PWM_Start_DMA>
  wr_buf_p = 2; // Since we're ready for the next buffer
 800031a:	4b02      	ldr	r3, [pc, #8]	; (8000324 <led_render+0xe0>)
 800031c:	2202      	movs	r2, #2
 800031e:	601a      	str	r2, [r3, #0]
 8000320:	e7ab      	b.n	800027a <led_render+0x36>
 8000322:	46c0      	nop			; (mov r8, r8)
 8000324:	20000060 	.word	0x20000060
 8000328:	20000064 	.word	0x20000064
 800032c:	20000030 	.word	0x20000030
 8000330:	200000ec 	.word	0x200000ec
 8000334:	2000002c 	.word	0x2000002c

08000338 <HAL_TIM_PWM_PulseFinishedHalfCpltCallback>:

void HAL_TIM_PWM_PulseFinishedHalfCpltCallback(TIM_HandleTypeDef *htim) {
 8000338:	b530      	push	{r4, r5, lr}
  // DMA buffer set from LED(wr_buf_p) to LED(wr_buf_p + 1)
  if(wr_buf_p < NUM_PIXELS) {
 800033a:	4b21      	ldr	r3, [pc, #132]	; (80003c0 <HAL_TIM_PWM_PulseFinishedHalfCpltCallback+0x88>)
 800033c:	6818      	ldr	r0, [r3, #0]
 800033e:	2800      	cmp	r0, #0
 8000340:	d12e      	bne.n	80003a0 <HAL_TIM_PWM_PulseFinishedHalfCpltCallback+0x68>
      wr_buf[i +  8] = PWM_LO << (((rgb_arr[4 * wr_buf_p + 1] << i) & 0x80) > 0);
      wr_buf[i + 16] = PWM_LO << (((rgb_arr[4 * wr_buf_p + 2] << i) & 0x80) > 0);
      wr_buf[i + 24] = PWM_LO << (((rgb_arr[4 * wr_buf_p + 3] << i) & 0x80) > 0);
    }
#else // WS2812B
    for(uint_fast8_t i = 0; i < 8; ++i) {
 8000342:	0003      	movs	r3, r0
 8000344:	e009      	b.n	800035a <HAL_TIM_PWM_PulseFinishedHalfCpltCallback+0x22>
      wr_buf[i     ] = PWM_LO << (((rgb_arr[3 * wr_buf_p    ] << i) & 0x80) > 0);
 8000346:	2413      	movs	r4, #19
 8000348:	e011      	b.n	800036e <HAL_TIM_PWM_PulseFinishedHalfCpltCallback+0x36>
      wr_buf[i +  8] = PWM_LO << (((rgb_arr[3 * wr_buf_p + 1] << i) & 0x80) > 0);
 800034a:	2513      	movs	r5, #19
 800034c:	e018      	b.n	8000380 <HAL_TIM_PWM_PulseFinishedHalfCpltCallback+0x48>
      wr_buf[i + 16] = PWM_LO << (((rgb_arr[3 * wr_buf_p + 2] << i) & 0x80) > 0);
 800034e:	2413      	movs	r4, #19
 8000350:	001a      	movs	r2, r3
 8000352:	3210      	adds	r2, #16
 8000354:	491b      	ldr	r1, [pc, #108]	; (80003c4 <HAL_TIM_PWM_PulseFinishedHalfCpltCallback+0x8c>)
 8000356:	548c      	strb	r4, [r1, r2]
    for(uint_fast8_t i = 0; i < 8; ++i) {
 8000358:	3301      	adds	r3, #1
 800035a:	2b07      	cmp	r3, #7
 800035c:	d81c      	bhi.n	8000398 <HAL_TIM_PWM_PulseFinishedHalfCpltCallback+0x60>
      wr_buf[i     ] = PWM_LO << (((rgb_arr[3 * wr_buf_p    ] << i) & 0x80) > 0);
 800035e:	0042      	lsls	r2, r0, #1
 8000360:	1812      	adds	r2, r2, r0
 8000362:	4919      	ldr	r1, [pc, #100]	; (80003c8 <HAL_TIM_PWM_PulseFinishedHalfCpltCallback+0x90>)
 8000364:	5c89      	ldrb	r1, [r1, r2]
 8000366:	4099      	lsls	r1, r3
 8000368:	0609      	lsls	r1, r1, #24
 800036a:	d5ec      	bpl.n	8000346 <HAL_TIM_PWM_PulseFinishedHalfCpltCallback+0xe>
 800036c:	2426      	movs	r4, #38	; 0x26
 800036e:	4915      	ldr	r1, [pc, #84]	; (80003c4 <HAL_TIM_PWM_PulseFinishedHalfCpltCallback+0x8c>)
 8000370:	54cc      	strb	r4, [r1, r3]
      wr_buf[i +  8] = PWM_LO << (((rgb_arr[3 * wr_buf_p + 1] << i) & 0x80) > 0);
 8000372:	1c51      	adds	r1, r2, #1
 8000374:	4c14      	ldr	r4, [pc, #80]	; (80003c8 <HAL_TIM_PWM_PulseFinishedHalfCpltCallback+0x90>)
 8000376:	5c61      	ldrb	r1, [r4, r1]
 8000378:	4099      	lsls	r1, r3
 800037a:	0609      	lsls	r1, r1, #24
 800037c:	d5e5      	bpl.n	800034a <HAL_TIM_PWM_PulseFinishedHalfCpltCallback+0x12>
 800037e:	2526      	movs	r5, #38	; 0x26
 8000380:	0019      	movs	r1, r3
 8000382:	3108      	adds	r1, #8
 8000384:	4c0f      	ldr	r4, [pc, #60]	; (80003c4 <HAL_TIM_PWM_PulseFinishedHalfCpltCallback+0x8c>)
 8000386:	5465      	strb	r5, [r4, r1]
      wr_buf[i + 16] = PWM_LO << (((rgb_arr[3 * wr_buf_p + 2] << i) & 0x80) > 0);
 8000388:	3202      	adds	r2, #2
 800038a:	490f      	ldr	r1, [pc, #60]	; (80003c8 <HAL_TIM_PWM_PulseFinishedHalfCpltCallback+0x90>)
 800038c:	5c8a      	ldrb	r2, [r1, r2]
 800038e:	409a      	lsls	r2, r3
 8000390:	0612      	lsls	r2, r2, #24
 8000392:	d5dc      	bpl.n	800034e <HAL_TIM_PWM_PulseFinishedHalfCpltCallback+0x16>
 8000394:	2426      	movs	r4, #38	; 0x26
 8000396:	e7db      	b.n	8000350 <HAL_TIM_PWM_PulseFinishedHalfCpltCallback+0x18>
    }
#endif // End SK6812 WS2812B case differentiation
    wr_buf_p++;
 8000398:	3001      	adds	r0, #1
 800039a:	4b09      	ldr	r3, [pc, #36]	; (80003c0 <HAL_TIM_PWM_PulseFinishedHalfCpltCallback+0x88>)
 800039c:	6018      	str	r0, [r3, #0]
  	//                               WS2812B: 48 * 1.25 us = 60 us == good enough reset
    // First half reset zero fill
    for(uint8_t i = 0; i < WR_BUF_LEN / 2; ++i) wr_buf[i] = 0;
    wr_buf_p++;
  }
}
 800039e:	bd30      	pop	{r4, r5, pc}
  } else if (wr_buf_p < NUM_PIXELS + 2) {
 80003a0:	2802      	cmp	r0, #2
 80003a2:	d8fc      	bhi.n	800039e <HAL_TIM_PWM_PulseFinishedHalfCpltCallback+0x66>
    for(uint8_t i = 0; i < WR_BUF_LEN / 2; ++i) wr_buf[i] = 0;
 80003a4:	2300      	movs	r3, #0
 80003a6:	2b17      	cmp	r3, #23
 80003a8:	d805      	bhi.n	80003b6 <HAL_TIM_PWM_PulseFinishedHalfCpltCallback+0x7e>
 80003aa:	4a06      	ldr	r2, [pc, #24]	; (80003c4 <HAL_TIM_PWM_PulseFinishedHalfCpltCallback+0x8c>)
 80003ac:	2100      	movs	r1, #0
 80003ae:	54d1      	strb	r1, [r2, r3]
 80003b0:	3301      	adds	r3, #1
 80003b2:	b2db      	uxtb	r3, r3
 80003b4:	e7f7      	b.n	80003a6 <HAL_TIM_PWM_PulseFinishedHalfCpltCallback+0x6e>
    wr_buf_p++;
 80003b6:	3001      	adds	r0, #1
 80003b8:	4b01      	ldr	r3, [pc, #4]	; (80003c0 <HAL_TIM_PWM_PulseFinishedHalfCpltCallback+0x88>)
 80003ba:	6018      	str	r0, [r3, #0]
}
 80003bc:	e7ef      	b.n	800039e <HAL_TIM_PWM_PulseFinishedHalfCpltCallback+0x66>
 80003be:	46c0      	nop			; (mov r8, r8)
 80003c0:	20000060 	.word	0x20000060
 80003c4:	20000030 	.word	0x20000030
 80003c8:	2000002c 	.word	0x2000002c

080003cc <HAL_TIM_PWM_PulseFinishedCallback>:

void HAL_TIM_PWM_PulseFinishedCallback(TIM_HandleTypeDef *htim) {
 80003cc:	b570      	push	{r4, r5, r6, lr}
  // DMA buffer set from LED(wr_buf_p) to LED(wr_buf_p + 1)
  if(wr_buf_p < NUM_PIXELS) {
 80003ce:	4b26      	ldr	r3, [pc, #152]	; (8000468 <HAL_TIM_PWM_PulseFinishedCallback+0x9c>)
 80003d0:	6818      	ldr	r0, [r3, #0]
 80003d2:	2800      	cmp	r0, #0
 80003d4:	d130      	bne.n	8000438 <HAL_TIM_PWM_PulseFinishedCallback+0x6c>
      wr_buf[i + 40] = PWM_LO << (((rgb_arr[4 * wr_buf_p + 1] << i) & 0x80) > 0);
      wr_buf[i + 48] = PWM_LO << (((rgb_arr[4 * wr_buf_p + 2] << i) & 0x80) > 0);
      wr_buf[i + 56] = PWM_LO << (((rgb_arr[4 * wr_buf_p + 3] << i) & 0x80) > 0);
    }
#else // WS2812B
    for(uint_fast8_t i = 0; i < 8; ++i) {
 80003d6:	0003      	movs	r3, r0
 80003d8:	e009      	b.n	80003ee <HAL_TIM_PWM_PulseFinishedCallback+0x22>
      wr_buf[i + 24] = PWM_LO << (((rgb_arr[3 * wr_buf_p    ] << i) & 0x80) > 0);
 80003da:	2513      	movs	r5, #19
 80003dc:	e011      	b.n	8000402 <HAL_TIM_PWM_PulseFinishedCallback+0x36>
      wr_buf[i + 32] = PWM_LO << (((rgb_arr[3 * wr_buf_p + 1] << i) & 0x80) > 0);
 80003de:	2513      	movs	r5, #19
 80003e0:	e01a      	b.n	8000418 <HAL_TIM_PWM_PulseFinishedCallback+0x4c>
      wr_buf[i + 40] = PWM_LO << (((rgb_arr[3 * wr_buf_p + 2] << i) & 0x80) > 0);
 80003e2:	2413      	movs	r4, #19
 80003e4:	001a      	movs	r2, r3
 80003e6:	3228      	adds	r2, #40	; 0x28
 80003e8:	4920      	ldr	r1, [pc, #128]	; (800046c <HAL_TIM_PWM_PulseFinishedCallback+0xa0>)
 80003ea:	548c      	strb	r4, [r1, r2]
    for(uint_fast8_t i = 0; i < 8; ++i) {
 80003ec:	3301      	adds	r3, #1
 80003ee:	2b07      	cmp	r3, #7
 80003f0:	d81e      	bhi.n	8000430 <HAL_TIM_PWM_PulseFinishedCallback+0x64>
      wr_buf[i + 24] = PWM_LO << (((rgb_arr[3 * wr_buf_p    ] << i) & 0x80) > 0);
 80003f2:	0042      	lsls	r2, r0, #1
 80003f4:	1812      	adds	r2, r2, r0
 80003f6:	491e      	ldr	r1, [pc, #120]	; (8000470 <HAL_TIM_PWM_PulseFinishedCallback+0xa4>)
 80003f8:	5c89      	ldrb	r1, [r1, r2]
 80003fa:	4099      	lsls	r1, r3
 80003fc:	0609      	lsls	r1, r1, #24
 80003fe:	d5ec      	bpl.n	80003da <HAL_TIM_PWM_PulseFinishedCallback+0xe>
 8000400:	2526      	movs	r5, #38	; 0x26
 8000402:	0019      	movs	r1, r3
 8000404:	3118      	adds	r1, #24
 8000406:	4c19      	ldr	r4, [pc, #100]	; (800046c <HAL_TIM_PWM_PulseFinishedCallback+0xa0>)
 8000408:	5465      	strb	r5, [r4, r1]
      wr_buf[i + 32] = PWM_LO << (((rgb_arr[3 * wr_buf_p + 1] << i) & 0x80) > 0);
 800040a:	1c51      	adds	r1, r2, #1
 800040c:	4c18      	ldr	r4, [pc, #96]	; (8000470 <HAL_TIM_PWM_PulseFinishedCallback+0xa4>)
 800040e:	5c61      	ldrb	r1, [r4, r1]
 8000410:	4099      	lsls	r1, r3
 8000412:	0609      	lsls	r1, r1, #24
 8000414:	d5e3      	bpl.n	80003de <HAL_TIM_PWM_PulseFinishedCallback+0x12>
 8000416:	2526      	movs	r5, #38	; 0x26
 8000418:	0019      	movs	r1, r3
 800041a:	3120      	adds	r1, #32
 800041c:	4c13      	ldr	r4, [pc, #76]	; (800046c <HAL_TIM_PWM_PulseFinishedCallback+0xa0>)
 800041e:	5465      	strb	r5, [r4, r1]
      wr_buf[i + 40] = PWM_LO << (((rgb_arr[3 * wr_buf_p + 2] << i) & 0x80) > 0);
 8000420:	3202      	adds	r2, #2
 8000422:	4913      	ldr	r1, [pc, #76]	; (8000470 <HAL_TIM_PWM_PulseFinishedCallback+0xa4>)
 8000424:	5c8a      	ldrb	r2, [r1, r2]
 8000426:	409a      	lsls	r2, r3
 8000428:	0612      	lsls	r2, r2, #24
 800042a:	d5da      	bpl.n	80003e2 <HAL_TIM_PWM_PulseFinishedCallback+0x16>
 800042c:	2426      	movs	r4, #38	; 0x26
 800042e:	e7d9      	b.n	80003e4 <HAL_TIM_PWM_PulseFinishedCallback+0x18>
    }
#endif // End SK6812 WS2812B case differentiation
    wr_buf_p++;
 8000430:	3001      	adds	r0, #1
 8000432:	4b0d      	ldr	r3, [pc, #52]	; (8000468 <HAL_TIM_PWM_PulseFinishedCallback+0x9c>)
 8000434:	6018      	str	r0, [r3, #0]
  } else {
    // We're done. Lean back and until next time!
    wr_buf_p = 0;
    HAL_TIM_PWM_Stop_DMA(&htim1, TIM_CHANNEL_1);
  }
}
 8000436:	bd70      	pop	{r4, r5, r6, pc}
  } else if (wr_buf_p < NUM_PIXELS + 2) {
 8000438:	2802      	cmp	r0, #2
 800043a:	d80c      	bhi.n	8000456 <HAL_TIM_PWM_PulseFinishedCallback+0x8a>
    for(uint8_t i = WR_BUF_LEN / 2; i < WR_BUF_LEN; ++i) wr_buf[i] = 0;
 800043c:	2318      	movs	r3, #24
 800043e:	2b2f      	cmp	r3, #47	; 0x2f
 8000440:	d805      	bhi.n	800044e <HAL_TIM_PWM_PulseFinishedCallback+0x82>
 8000442:	4a0a      	ldr	r2, [pc, #40]	; (800046c <HAL_TIM_PWM_PulseFinishedCallback+0xa0>)
 8000444:	2100      	movs	r1, #0
 8000446:	54d1      	strb	r1, [r2, r3]
 8000448:	3301      	adds	r3, #1
 800044a:	b2db      	uxtb	r3, r3
 800044c:	e7f7      	b.n	800043e <HAL_TIM_PWM_PulseFinishedCallback+0x72>
    ++wr_buf_p;
 800044e:	3001      	adds	r0, #1
 8000450:	4b05      	ldr	r3, [pc, #20]	; (8000468 <HAL_TIM_PWM_PulseFinishedCallback+0x9c>)
 8000452:	6018      	str	r0, [r3, #0]
 8000454:	e7ef      	b.n	8000436 <HAL_TIM_PWM_PulseFinishedCallback+0x6a>
    wr_buf_p = 0;
 8000456:	4b04      	ldr	r3, [pc, #16]	; (8000468 <HAL_TIM_PWM_PulseFinishedCallback+0x9c>)
 8000458:	2200      	movs	r2, #0
 800045a:	601a      	str	r2, [r3, #0]
    HAL_TIM_PWM_Stop_DMA(&htim1, TIM_CHANNEL_1);
 800045c:	2100      	movs	r1, #0
 800045e:	4805      	ldr	r0, [pc, #20]	; (8000474 <HAL_TIM_PWM_PulseFinishedCallback+0xa8>)
 8000460:	f002 f9ca 	bl	80027f8 <HAL_TIM_PWM_Stop_DMA>
}
 8000464:	e7e7      	b.n	8000436 <HAL_TIM_PWM_PulseFinishedCallback+0x6a>
 8000466:	46c0      	nop			; (mov r8, r8)
 8000468:	20000060 	.word	0x20000060
 800046c:	20000030 	.word	0x20000030
 8000470:	2000002c 	.word	0x2000002c
 8000474:	200000ec 	.word	0x200000ec

08000478 <hsl_to_rgb>:


// Fast hsl2rgb algorithm: https://stackoverflow.com/questions/13105185/fast-algorithm-for-rgb-hsl-conversion
uint32_t hsl_to_rgb(uint8_t h, uint8_t s, uint8_t l) {
 8000478:	b510      	push	{r4, lr}
 800047a:	b084      	sub	sp, #16
	if(l == 0) return 0;
 800047c:	2a00      	cmp	r2, #0
 800047e:	d100      	bne.n	8000482 <hsl_to_rgb+0xa>
 8000480:	e0e1      	b.n	8000646 <hsl_to_rgb+0x1ce>

	volatile uint8_t  r, g, b, lo, c, x, m;
	volatile uint16_t h1, l1, H;
	l1 = l + 1;
 8000482:	1c53      	adds	r3, r2, #1
 8000484:	ac01      	add	r4, sp, #4
 8000486:	8023      	strh	r3, [r4, #0]
	if (l < 128)    c = ((l1 << 1) * s) >> 8;
 8000488:	b253      	sxtb	r3, r2
 800048a:	2b00      	cmp	r3, #0
 800048c:	db37      	blt.n	80004fe <hsl_to_rgb+0x86>
 800048e:	8823      	ldrh	r3, [r4, #0]
 8000490:	005b      	lsls	r3, r3, #1
 8000492:	4359      	muls	r1, r3
 8000494:	1209      	asrs	r1, r1, #8
 8000496:	b2c9      	uxtb	r1, r1
 8000498:	230b      	movs	r3, #11
 800049a:	446b      	add	r3, sp
 800049c:	7019      	strb	r1, [r3, #0]
	else            c = (512 - (l1 << 1)) * s >> 8;

	H = h * 6;              // 0 to 1535 (actually 1530)
 800049e:	0043      	lsls	r3, r0, #1
 80004a0:	18c0      	adds	r0, r0, r3
 80004a2:	0040      	lsls	r0, r0, #1
 80004a4:	466b      	mov	r3, sp
 80004a6:	8058      	strh	r0, [r3, #2]
	lo = H & 255;           // Low byte  = primary/secondary color mix
 80004a8:	8859      	ldrh	r1, [r3, #2]
	H = h * 6;              // 0 to 1535 (actually 1530)
 80004aa:	3302      	adds	r3, #2
	lo = H & 255;           // Low byte  = primary/secondary color mix
 80004ac:	b2c9      	uxtb	r1, r1
 80004ae:	a803      	add	r0, sp, #12
 80004b0:	7001      	strb	r1, [r0, #0]
	h1 = lo + 1;
 80004b2:	7801      	ldrb	r1, [r0, #0]
 80004b4:	3101      	adds	r1, #1
 80004b6:	4668      	mov	r0, sp
 80004b8:	80c1      	strh	r1, [r0, #6]
 80004ba:	3006      	adds	r0, #6

	if ((H & 256) == 0)   x = h1 * c >> 8;          // even sextant, like red to yellow
 80004bc:	881b      	ldrh	r3, [r3, #0]
 80004be:	05db      	lsls	r3, r3, #23
 80004c0:	d42a      	bmi.n	8000518 <hsl_to_rgb+0xa0>
 80004c2:	8801      	ldrh	r1, [r0, #0]
 80004c4:	230b      	movs	r3, #11
 80004c6:	446b      	add	r3, sp
 80004c8:	781b      	ldrb	r3, [r3, #0]
 80004ca:	434b      	muls	r3, r1
 80004cc:	121b      	asrs	r3, r3, #8
 80004ce:	b2db      	uxtb	r3, r3
 80004d0:	210a      	movs	r1, #10
 80004d2:	4469      	add	r1, sp
 80004d4:	700b      	strb	r3, [r1, #0]
	else                  x = (256 - h1) * c >> 8;  // odd sextant, like yellow to green

	m = l - (c >> 1);
 80004d6:	230b      	movs	r3, #11
 80004d8:	446b      	add	r3, sp
 80004da:	781b      	ldrb	r3, [r3, #0]
 80004dc:	085b      	lsrs	r3, r3, #1
 80004de:	1ad2      	subs	r2, r2, r3
 80004e0:	b2d2      	uxtb	r2, r2
 80004e2:	2309      	movs	r3, #9
 80004e4:	446b      	add	r3, sp
 80004e6:	701a      	strb	r2, [r3, #0]
	switch(H >> 8) {       // High byte = sextant of colorwheel
 80004e8:	466b      	mov	r3, sp
 80004ea:	3302      	adds	r3, #2
 80004ec:	881b      	ldrh	r3, [r3, #0]
 80004ee:	0a1b      	lsrs	r3, r3, #8
 80004f0:	2b04      	cmp	r3, #4
 80004f2:	d900      	bls.n	80004f6 <hsl_to_rgb+0x7e>
 80004f4:	e094      	b.n	8000620 <hsl_to_rgb+0x1a8>
 80004f6:	009b      	lsls	r3, r3, #2
 80004f8:	4a54      	ldr	r2, [pc, #336]	; (800064c <hsl_to_rgb+0x1d4>)
 80004fa:	58d3      	ldr	r3, [r2, r3]
 80004fc:	469f      	mov	pc, r3
	else            c = (512 - (l1 << 1)) * s >> 8;
 80004fe:	ab01      	add	r3, sp, #4
 8000500:	881c      	ldrh	r4, [r3, #0]
 8000502:	0064      	lsls	r4, r4, #1
 8000504:	2380      	movs	r3, #128	; 0x80
 8000506:	009b      	lsls	r3, r3, #2
 8000508:	1b1b      	subs	r3, r3, r4
 800050a:	4359      	muls	r1, r3
 800050c:	1209      	asrs	r1, r1, #8
 800050e:	b2c9      	uxtb	r1, r1
 8000510:	230b      	movs	r3, #11
 8000512:	446b      	add	r3, sp
 8000514:	7019      	strb	r1, [r3, #0]
 8000516:	e7c2      	b.n	800049e <hsl_to_rgb+0x26>
	else                  x = (256 - h1) * c >> 8;  // odd sextant, like yellow to green
 8000518:	466b      	mov	r3, sp
 800051a:	88d9      	ldrh	r1, [r3, #6]
 800051c:	2380      	movs	r3, #128	; 0x80
 800051e:	005b      	lsls	r3, r3, #1
 8000520:	1a59      	subs	r1, r3, r1
 8000522:	3bf5      	subs	r3, #245	; 0xf5
 8000524:	446b      	add	r3, sp
 8000526:	781b      	ldrb	r3, [r3, #0]
 8000528:	434b      	muls	r3, r1
 800052a:	121b      	asrs	r3, r3, #8
 800052c:	b2db      	uxtb	r3, r3
 800052e:	210a      	movs	r1, #10
 8000530:	4469      	add	r1, sp
 8000532:	700b      	strb	r3, [r1, #0]
 8000534:	e7cf      	b.n	80004d6 <hsl_to_rgb+0x5e>
	 case 0 : r = c; g = x; b = 0; break; // R to Y
 8000536:	230b      	movs	r3, #11
 8000538:	446b      	add	r3, sp
 800053a:	781b      	ldrb	r3, [r3, #0]
 800053c:	b2db      	uxtb	r3, r3
 800053e:	220f      	movs	r2, #15
 8000540:	446a      	add	r2, sp
 8000542:	7013      	strb	r3, [r2, #0]
 8000544:	230a      	movs	r3, #10
 8000546:	446b      	add	r3, sp
 8000548:	781b      	ldrb	r3, [r3, #0]
 800054a:	b2db      	uxtb	r3, r3
 800054c:	220e      	movs	r2, #14
 800054e:	446a      	add	r2, sp
 8000550:	7013      	strb	r3, [r2, #0]
 8000552:	230d      	movs	r3, #13
 8000554:	446b      	add	r3, sp
 8000556:	2200      	movs	r2, #0
 8000558:	701a      	strb	r2, [r3, #0]
	 case 3 : r = 0; g = x; b = c; break; // C to B
	 case 4 : r = x; g = 0; b = c; break; // B to M
	 default: r = c; g = 0; b = x; break; // M to R
	}

	return (((uint32_t)r + m) << 16) | (((uint32_t)g + m) << 8) | ((uint32_t)b + m);
 800055a:	230f      	movs	r3, #15
 800055c:	446b      	add	r3, sp
 800055e:	781b      	ldrb	r3, [r3, #0]
 8000560:	2209      	movs	r2, #9
 8000562:	446a      	add	r2, sp
 8000564:	7810      	ldrb	r0, [r2, #0]
 8000566:	18c0      	adds	r0, r0, r3
 8000568:	0400      	lsls	r0, r0, #16
 800056a:	230e      	movs	r3, #14
 800056c:	446b      	add	r3, sp
 800056e:	7819      	ldrb	r1, [r3, #0]
 8000570:	7813      	ldrb	r3, [r2, #0]
 8000572:	185b      	adds	r3, r3, r1
 8000574:	021b      	lsls	r3, r3, #8
 8000576:	4318      	orrs	r0, r3
 8000578:	230d      	movs	r3, #13
 800057a:	446b      	add	r3, sp
 800057c:	7819      	ldrb	r1, [r3, #0]
 800057e:	7813      	ldrb	r3, [r2, #0]
 8000580:	185b      	adds	r3, r3, r1
 8000582:	4318      	orrs	r0, r3
}
 8000584:	b004      	add	sp, #16
 8000586:	bd10      	pop	{r4, pc}
	 case 1 : r = x; g = c; b = 0; break; // Y to G
 8000588:	230a      	movs	r3, #10
 800058a:	446b      	add	r3, sp
 800058c:	781b      	ldrb	r3, [r3, #0]
 800058e:	b2db      	uxtb	r3, r3
 8000590:	220f      	movs	r2, #15
 8000592:	446a      	add	r2, sp
 8000594:	7013      	strb	r3, [r2, #0]
 8000596:	230b      	movs	r3, #11
 8000598:	446b      	add	r3, sp
 800059a:	781b      	ldrb	r3, [r3, #0]
 800059c:	b2db      	uxtb	r3, r3
 800059e:	220e      	movs	r2, #14
 80005a0:	446a      	add	r2, sp
 80005a2:	7013      	strb	r3, [r2, #0]
 80005a4:	230d      	movs	r3, #13
 80005a6:	446b      	add	r3, sp
 80005a8:	2200      	movs	r2, #0
 80005aa:	701a      	strb	r2, [r3, #0]
 80005ac:	e7d5      	b.n	800055a <hsl_to_rgb+0xe2>
	 case 2 : r = 0; g = c; b = x; break; // G to C
 80005ae:	230f      	movs	r3, #15
 80005b0:	446b      	add	r3, sp
 80005b2:	2200      	movs	r2, #0
 80005b4:	701a      	strb	r2, [r3, #0]
 80005b6:	230b      	movs	r3, #11
 80005b8:	446b      	add	r3, sp
 80005ba:	781b      	ldrb	r3, [r3, #0]
 80005bc:	b2db      	uxtb	r3, r3
 80005be:	320e      	adds	r2, #14
 80005c0:	446a      	add	r2, sp
 80005c2:	7013      	strb	r3, [r2, #0]
 80005c4:	230a      	movs	r3, #10
 80005c6:	446b      	add	r3, sp
 80005c8:	781b      	ldrb	r3, [r3, #0]
 80005ca:	b2db      	uxtb	r3, r3
 80005cc:	220d      	movs	r2, #13
 80005ce:	446a      	add	r2, sp
 80005d0:	7013      	strb	r3, [r2, #0]
 80005d2:	e7c2      	b.n	800055a <hsl_to_rgb+0xe2>
	 case 3 : r = 0; g = x; b = c; break; // C to B
 80005d4:	230f      	movs	r3, #15
 80005d6:	446b      	add	r3, sp
 80005d8:	2200      	movs	r2, #0
 80005da:	701a      	strb	r2, [r3, #0]
 80005dc:	230a      	movs	r3, #10
 80005de:	446b      	add	r3, sp
 80005e0:	781b      	ldrb	r3, [r3, #0]
 80005e2:	b2db      	uxtb	r3, r3
 80005e4:	320e      	adds	r2, #14
 80005e6:	446a      	add	r2, sp
 80005e8:	7013      	strb	r3, [r2, #0]
 80005ea:	230b      	movs	r3, #11
 80005ec:	446b      	add	r3, sp
 80005ee:	781b      	ldrb	r3, [r3, #0]
 80005f0:	b2db      	uxtb	r3, r3
 80005f2:	220d      	movs	r2, #13
 80005f4:	446a      	add	r2, sp
 80005f6:	7013      	strb	r3, [r2, #0]
 80005f8:	e7af      	b.n	800055a <hsl_to_rgb+0xe2>
	 case 4 : r = x; g = 0; b = c; break; // B to M
 80005fa:	230a      	movs	r3, #10
 80005fc:	446b      	add	r3, sp
 80005fe:	781b      	ldrb	r3, [r3, #0]
 8000600:	b2db      	uxtb	r3, r3
 8000602:	220f      	movs	r2, #15
 8000604:	446a      	add	r2, sp
 8000606:	7013      	strb	r3, [r2, #0]
 8000608:	230e      	movs	r3, #14
 800060a:	446b      	add	r3, sp
 800060c:	2200      	movs	r2, #0
 800060e:	701a      	strb	r2, [r3, #0]
 8000610:	230b      	movs	r3, #11
 8000612:	446b      	add	r3, sp
 8000614:	781b      	ldrb	r3, [r3, #0]
 8000616:	b2db      	uxtb	r3, r3
 8000618:	320d      	adds	r2, #13
 800061a:	446a      	add	r2, sp
 800061c:	7013      	strb	r3, [r2, #0]
 800061e:	e79c      	b.n	800055a <hsl_to_rgb+0xe2>
	 default: r = c; g = 0; b = x; break; // M to R
 8000620:	230b      	movs	r3, #11
 8000622:	446b      	add	r3, sp
 8000624:	781b      	ldrb	r3, [r3, #0]
 8000626:	b2db      	uxtb	r3, r3
 8000628:	220f      	movs	r2, #15
 800062a:	446a      	add	r2, sp
 800062c:	7013      	strb	r3, [r2, #0]
 800062e:	230e      	movs	r3, #14
 8000630:	446b      	add	r3, sp
 8000632:	2200      	movs	r2, #0
 8000634:	701a      	strb	r2, [r3, #0]
 8000636:	230a      	movs	r3, #10
 8000638:	446b      	add	r3, sp
 800063a:	781b      	ldrb	r3, [r3, #0]
 800063c:	b2db      	uxtb	r3, r3
 800063e:	320d      	adds	r2, #13
 8000640:	446a      	add	r2, sp
 8000642:	7013      	strb	r3, [r2, #0]
 8000644:	e789      	b.n	800055a <hsl_to_rgb+0xe2>
	if(l == 0) return 0;
 8000646:	2000      	movs	r0, #0
 8000648:	e79c      	b.n	8000584 <hsl_to_rgb+0x10c>
 800064a:	46c0      	nop			; (mov r8, r8)
 800064c:	08002adc 	.word	0x08002adc

08000650 <RGB_Updaate>:
void RGB_Updaate(){
 8000650:	b510      	push	{r4, lr}
		for (uint8_t i = 0;
 8000652:	2400      	movs	r4, #0
				i < NUM_PIXELS /* Change that to your amount of LEDs */; i++) {
 8000654:	2c00      	cmp	r4, #0
 8000656:	d116      	bne.n	8000686 <RGB_Updaate+0x36>
			uint32_t rgb_color = hsl_to_rgb(angle + (i * angle_difference), 255,
 8000658:	00a0      	lsls	r0, r4, #2
 800065a:	1820      	adds	r0, r4, r0
 800065c:	0040      	lsls	r0, r0, #1
 800065e:	1820      	adds	r0, r4, r0
 8000660:	4b0c      	ldr	r3, [pc, #48]	; (8000694 <RGB_Updaate+0x44>)
 8000662:	781b      	ldrb	r3, [r3, #0]
 8000664:	18c0      	adds	r0, r0, r3
 8000666:	b2c0      	uxtb	r0, r0
 8000668:	227f      	movs	r2, #127	; 0x7f
 800066a:	21ff      	movs	r1, #255	; 0xff
 800066c:	f7ff ff04 	bl	8000478 <hsl_to_rgb>
			led_set_RGB(i, (rgb_color >> 16) & 0xFF, (rgb_color >> 8) & 0xFF,
 8000670:	0c01      	lsrs	r1, r0, #16
 8000672:	0a02      	lsrs	r2, r0, #8
 8000674:	b2c3      	uxtb	r3, r0
 8000676:	b2d2      	uxtb	r2, r2
 8000678:	b2c9      	uxtb	r1, r1
 800067a:	0020      	movs	r0, r4
 800067c:	f7ff fdce 	bl	800021c <led_set_RGB>
		for (uint8_t i = 0;
 8000680:	3401      	adds	r4, #1
 8000682:	b2e4      	uxtb	r4, r4
 8000684:	e7e6      	b.n	8000654 <RGB_Updaate+0x4>
		++angle;
 8000686:	4a03      	ldr	r2, [pc, #12]	; (8000694 <RGB_Updaate+0x44>)
 8000688:	7813      	ldrb	r3, [r2, #0]
 800068a:	3301      	adds	r3, #1
 800068c:	7013      	strb	r3, [r2, #0]
	led_render();
 800068e:	f7ff fdd9 	bl	8000244 <led_render>
}
 8000692:	bd10      	pop	{r4, pc}
 8000694:	20000028 	.word	0x20000028

08000698 <MX_GPIO_Init>:
  * @brief GPIO Initialization Function
  * @param None
  * @retval None
  */
static void MX_GPIO_Init(void)
{
 8000698:	b570      	push	{r4, r5, r6, lr}
 800069a:	b08a      	sub	sp, #40	; 0x28
  GPIO_InitTypeDef GPIO_InitStruct = {0};
 800069c:	2208      	movs	r2, #8
 800069e:	2100      	movs	r1, #0
 80006a0:	a808      	add	r0, sp, #32
 80006a2:	f002 fa07 	bl	8002ab4 <memset>

  /* GPIO Ports Clock Enable */
  __HAL_RCC_GPIOC_CLK_ENABLE();
 80006a6:	4b23      	ldr	r3, [pc, #140]	; (8000734 <MX_GPIO_Init+0x9c>)
 80006a8:	6b5a      	ldr	r2, [r3, #52]	; 0x34
 80006aa:	2604      	movs	r6, #4
 80006ac:	4332      	orrs	r2, r6
 80006ae:	635a      	str	r2, [r3, #52]	; 0x34
 80006b0:	6b5a      	ldr	r2, [r3, #52]	; 0x34
 80006b2:	4032      	ands	r2, r6
 80006b4:	9201      	str	r2, [sp, #4]
 80006b6:	9a01      	ldr	r2, [sp, #4]
  __HAL_RCC_GPIOF_CLK_ENABLE();
 80006b8:	6b59      	ldr	r1, [r3, #52]	; 0x34
 80006ba:	2220      	movs	r2, #32
 80006bc:	4311      	orrs	r1, r2
 80006be:	6359      	str	r1, [r3, #52]	; 0x34
 80006c0:	6b59      	ldr	r1, [r3, #52]	; 0x34
 80006c2:	400a      	ands	r2, r1
 80006c4:	9202      	str	r2, [sp, #8]
 80006c6:	9a02      	ldr	r2, [sp, #8]
  __HAL_RCC_GPIOA_CLK_ENABLE();
 80006c8:	6b59      	ldr	r1, [r3, #52]	; 0x34
 80006ca:	2201      	movs	r2, #1
 80006cc:	4311      	orrs	r1, r2
 80006ce:	6359      	str	r1, [r3, #52]	; 0x34
 80006d0:	6b59      	ldr	r1, [r3, #52]	; 0x34
 80006d2:	400a      	ands	r2, r1
 80006d4:	9203      	str	r2, [sp, #12]
 80006d6:	9a03      	ldr	r2, [sp, #12]
  __HAL_RCC_GPIOB_CLK_ENABLE();
 80006d8:	6b59      	ldr	r1, [r3, #52]	; 0x34
 80006da:	2202      	movs	r2, #2
 80006dc:	4311      	orrs	r1, r2
 80006de:	6359      	str	r1, [r3, #52]	; 0x34
 80006e0:	6b5b      	ldr	r3, [r3, #52]	; 0x34
 80006e2:	401a      	ands	r2, r3
 80006e4:	9204      	str	r2, [sp, #16]
 80006e6:	9b04      	ldr	r3, [sp, #16]

  /*Configure GPIO pins : PC14 PC15 PC6 */
  GPIO_InitStruct.Pin = GPIO_PIN_14|GPIO_PIN_15|GPIO_PIN_6;
 80006e8:	4b13      	ldr	r3, [pc, #76]	; (8000738 <MX_GPIO_Init+0xa0>)
 80006ea:	9305      	str	r3, [sp, #20]
  GPIO_InitStruct.Mode = GPIO_MODE_ANALOG;
 80006ec:	2503      	movs	r5, #3
 80006ee:	9506      	str	r5, [sp, #24]
  GPIO_InitStruct.Pull = GPIO_NOPULL;
 80006f0:	2400      	movs	r4, #0
 80006f2:	9407      	str	r4, [sp, #28]
  HAL_GPIO_Init(GPIOC, &GPIO_InitStruct);
 80006f4:	a905      	add	r1, sp, #20
 80006f6:	4811      	ldr	r0, [pc, #68]	; (800073c <MX_GPIO_Init+0xa4>)
 80006f8:	f000 fc8c 	bl	8001014 <HAL_GPIO_Init>

  /*Configure GPIO pin : PF2 */
  GPIO_InitStruct.Pin = GPIO_PIN_2;
 80006fc:	9605      	str	r6, [sp, #20]
  GPIO_InitStruct.Mode = GPIO_MODE_ANALOG;
 80006fe:	9506      	str	r5, [sp, #24]
  GPIO_InitStruct.Pull = GPIO_NOPULL;
 8000700:	9407      	str	r4, [sp, #28]
  HAL_GPIO_Init(GPIOF, &GPIO_InitStruct);
 8000702:	a905      	add	r1, sp, #20
 8000704:	480e      	ldr	r0, [pc, #56]	; (8000740 <MX_GPIO_Init+0xa8>)
 8000706:	f000 fc85 	bl	8001014 <HAL_GPIO_Init>

  /*Configure GPIO pins : PA0 PA1 PA2 PA3
                           PA4 PA5 PA6 PA7
                           PA11 PA12 PA15 */
  GPIO_InitStruct.Pin = GPIO_PIN_0|GPIO_PIN_1|GPIO_PIN_2|GPIO_PIN_3
 800070a:	4b0e      	ldr	r3, [pc, #56]	; (8000744 <MX_GPIO_Init+0xac>)
 800070c:	9305      	str	r3, [sp, #20]
                          |GPIO_PIN_4|GPIO_PIN_5|GPIO_PIN_6|GPIO_PIN_7
                          |GPIO_PIN_11|GPIO_PIN_12|GPIO_PIN_15;
  GPIO_InitStruct.Mode = GPIO_MODE_ANALOG;
 800070e:	9506      	str	r5, [sp, #24]
  GPIO_InitStruct.Pull = GPIO_NOPULL;
 8000710:	9407      	str	r4, [sp, #28]
  HAL_GPIO_Init(GPIOA, &GPIO_InitStruct);
 8000712:	20a0      	movs	r0, #160	; 0xa0
 8000714:	a905      	add	r1, sp, #20
 8000716:	05c0      	lsls	r0, r0, #23
 8000718:	f000 fc7c 	bl	8001014 <HAL_GPIO_Init>

  /*Configure GPIO pins : PB0 PB1 PB3 PB4
                           PB5 PB6 PB7 PB8 */
  GPIO_InitStruct.Pin = GPIO_PIN_0|GPIO_PIN_1|GPIO_PIN_3|GPIO_PIN_4
 800071c:	23fc      	movs	r3, #252	; 0xfc
 800071e:	33ff      	adds	r3, #255	; 0xff
 8000720:	9305      	str	r3, [sp, #20]
                          |GPIO_PIN_5|GPIO_PIN_6|GPIO_PIN_7|GPIO_PIN_8;
  GPIO_InitStruct.Mode = GPIO_MODE_ANALOG;
 8000722:	9506      	str	r5, [sp, #24]
  GPIO_InitStruct.Pull = GPIO_NOPULL;
 8000724:	9407      	str	r4, [sp, #28]
  HAL_GPIO_Init(GPIOB, &GPIO_InitStruct);
 8000726:	a905      	add	r1, sp, #20
 8000728:	4807      	ldr	r0, [pc, #28]	; (8000748 <MX_GPIO_Init+0xb0>)
 800072a:	f000 fc73 	bl	8001014 <HAL_GPIO_Init>

}
 800072e:	b00a      	add	sp, #40	; 0x28
 8000730:	bd70      	pop	{r4, r5, r6, pc}
 8000732:	46c0      	nop			; (mov r8, r8)
 8000734:	40021000 	.word	0x40021000
 8000738:	0000c040 	.word	0x0000c040
 800073c:	50000800 	.word	0x50000800
 8000740:	50001400 	.word	0x50001400
 8000744:	000098ff 	.word	0x000098ff
 8000748:	50000400 	.word	0x50000400

0800074c <MX_DMA_Init>:
{
 800074c:	b500      	push	{lr}
 800074e:	b083      	sub	sp, #12
  __HAL_RCC_DMA1_CLK_ENABLE();
 8000750:	4a09      	ldr	r2, [pc, #36]	; (8000778 <MX_DMA_Init+0x2c>)
 8000752:	6b91      	ldr	r1, [r2, #56]	; 0x38
 8000754:	2301      	movs	r3, #1
 8000756:	4319      	orrs	r1, r3
 8000758:	6391      	str	r1, [r2, #56]	; 0x38
 800075a:	6b92      	ldr	r2, [r2, #56]	; 0x38
 800075c:	4013      	ands	r3, r2
 800075e:	9301      	str	r3, [sp, #4]
 8000760:	9b01      	ldr	r3, [sp, #4]
  HAL_NVIC_SetPriority(DMA1_Channel1_IRQn, 0, 0);
 8000762:	2200      	movs	r2, #0
 8000764:	2100      	movs	r1, #0
 8000766:	2009      	movs	r0, #9
 8000768:	f000 fa5c 	bl	8000c24 <HAL_NVIC_SetPriority>
  HAL_NVIC_EnableIRQ(DMA1_Channel1_IRQn);
 800076c:	2009      	movs	r0, #9
 800076e:	f000 fa89 	bl	8000c84 <HAL_NVIC_EnableIRQ>
}
 8000772:	b003      	add	sp, #12
 8000774:	bd00      	pop	{pc}
 8000776:	46c0      	nop			; (mov r8, r8)
 8000778:	40021000 	.word	0x40021000

0800077c <Error_Handler>:
  \details Disables IRQ interrupts by setting the I-bit in the CPSR.
           Can only be executed in Privileged modes.
 */
__STATIC_FORCEINLINE void __disable_irq(void)
{
  __ASM volatile ("cpsid i" : : : "memory");
 800077c:	b672      	cpsid	i
void Error_Handler(void)
{
  /* USER CODE BEGIN Error_Handler_Debug */
	/* User can add his own implementation to report the HAL error return state */
	__disable_irq();
	while (1)
 800077e:	e7fe      	b.n	800077e <Error_Handler+0x2>

08000780 <MX_RTC_Init>:
{
 8000780:	b510      	push	{r4, lr}
  hrtc.Instance = RTC;
 8000782:	4810      	ldr	r0, [pc, #64]	; (80007c4 <MX_RTC_Init+0x44>)
 8000784:	4b10      	ldr	r3, [pc, #64]	; (80007c8 <MX_RTC_Init+0x48>)
 8000786:	6003      	str	r3, [r0, #0]
  hrtc.Init.HourFormat = RTC_HOURFORMAT_24;
 8000788:	2300      	movs	r3, #0
 800078a:	6083      	str	r3, [r0, #8]
  hrtc.Init.AsynchPrediv = 127;
 800078c:	227f      	movs	r2, #127	; 0x7f
 800078e:	60c2      	str	r2, [r0, #12]
  hrtc.Init.SynchPrediv = 255;
 8000790:	3280      	adds	r2, #128	; 0x80
 8000792:	6102      	str	r2, [r0, #16]
  hrtc.Init.OutPut = RTC_OUTPUT_DISABLE;
 8000794:	6143      	str	r3, [r0, #20]
  hrtc.Init.OutPutRemap = RTC_OUTPUT_REMAP_NONE;
 8000796:	6183      	str	r3, [r0, #24]
  hrtc.Init.OutPutPolarity = RTC_OUTPUT_POLARITY_HIGH;
 8000798:	61c3      	str	r3, [r0, #28]
  hrtc.Init.OutPutType = RTC_OUTPUT_TYPE_OPENDRAIN;
 800079a:	2280      	movs	r2, #128	; 0x80
 800079c:	05d2      	lsls	r2, r2, #23
 800079e:	6202      	str	r2, [r0, #32]
  hrtc.Init.OutPutPullUp = RTC_OUTPUT_PULLUP_NONE;
 80007a0:	6243      	str	r3, [r0, #36]	; 0x24
  if (HAL_RTC_Init(&hrtc) != HAL_OK)
 80007a2:	f001 f9f9 	bl	8001b98 <HAL_RTC_Init>
 80007a6:	2800      	cmp	r0, #0
 80007a8:	d107      	bne.n	80007ba <MX_RTC_Init+0x3a>
  if (HAL_RTCEx_SetWakeUpTimer_IT(&hrtc, 20000, RTC_WAKEUPCLOCK_RTCCLK_DIV16) != HAL_OK)
 80007aa:	2200      	movs	r2, #0
 80007ac:	4907      	ldr	r1, [pc, #28]	; (80007cc <MX_RTC_Init+0x4c>)
 80007ae:	4805      	ldr	r0, [pc, #20]	; (80007c4 <MX_RTC_Init+0x44>)
 80007b0:	f001 fa48 	bl	8001c44 <HAL_RTCEx_SetWakeUpTimer_IT>
 80007b4:	2800      	cmp	r0, #0
 80007b6:	d102      	bne.n	80007be <MX_RTC_Init+0x3e>
}
 80007b8:	bd10      	pop	{r4, pc}
    Error_Handler();
 80007ba:	f7ff ffdf 	bl	800077c <Error_Handler>
    Error_Handler();
 80007be:	f7ff ffdd 	bl	800077c <Error_Handler>
 80007c2:	46c0      	nop			; (mov r8, r8)
 80007c4:	200000c0 	.word	0x200000c0
 80007c8:	40002800 	.word	0x40002800
 80007cc:	00004e20 	.word	0x00004e20

080007d0 <MX_TIM1_Init>:
{
 80007d0:	b500      	push	{lr}
 80007d2:	b09d      	sub	sp, #116	; 0x74
  TIM_ClockConfigTypeDef sClockSourceConfig = {0};
 80007d4:	2210      	movs	r2, #16
 80007d6:	2100      	movs	r1, #0
 80007d8:	a818      	add	r0, sp, #96	; 0x60
 80007da:	f002 f96b 	bl	8002ab4 <memset>
  TIM_MasterConfigTypeDef sMasterConfig = {0};
 80007de:	220c      	movs	r2, #12
 80007e0:	2100      	movs	r1, #0
 80007e2:	a815      	add	r0, sp, #84	; 0x54
 80007e4:	f002 f966 	bl	8002ab4 <memset>
  TIM_OC_InitTypeDef sConfigOC = {0};
 80007e8:	221c      	movs	r2, #28
 80007ea:	2100      	movs	r1, #0
 80007ec:	a80e      	add	r0, sp, #56	; 0x38
 80007ee:	f002 f961 	bl	8002ab4 <memset>
  TIM_BreakDeadTimeConfigTypeDef sBreakDeadTimeConfig = {0};
 80007f2:	2234      	movs	r2, #52	; 0x34
 80007f4:	2100      	movs	r1, #0
 80007f6:	a801      	add	r0, sp, #4
 80007f8:	f002 f95c 	bl	8002ab4 <memset>
  htim1.Instance = TIM1;
 80007fc:	482f      	ldr	r0, [pc, #188]	; (80008bc <MX_TIM1_Init+0xec>)
 80007fe:	4b30      	ldr	r3, [pc, #192]	; (80008c0 <MX_TIM1_Init+0xf0>)
 8000800:	6003      	str	r3, [r0, #0]
  htim1.Init.Prescaler = 0;
 8000802:	2300      	movs	r3, #0
 8000804:	6043      	str	r3, [r0, #4]
  htim1.Init.CounterMode = TIM_COUNTERMODE_UP;
 8000806:	6083      	str	r3, [r0, #8]
  htim1.Init.Period = 60-1;
 8000808:	223b      	movs	r2, #59	; 0x3b
 800080a:	60c2      	str	r2, [r0, #12]
  htim1.Init.ClockDivision = TIM_CLOCKDIVISION_DIV1;
 800080c:	6103      	str	r3, [r0, #16]
  htim1.Init.RepetitionCounter = 0;
 800080e:	6143      	str	r3, [r0, #20]
  htim1.Init.AutoReloadPreload = TIM_AUTORELOAD_PRELOAD_DISABLE;
 8000810:	6183      	str	r3, [r0, #24]
  if (HAL_TIM_Base_Init(&htim1) != HAL_OK)
 8000812:	f001 fcb5 	bl	8002180 <HAL_TIM_Base_Init>
 8000816:	2800      	cmp	r0, #0
 8000818:	d144      	bne.n	80008a4 <MX_TIM1_Init+0xd4>
  sClockSourceConfig.ClockSource = TIM_CLOCKSOURCE_INTERNAL;
 800081a:	2380      	movs	r3, #128	; 0x80
 800081c:	015b      	lsls	r3, r3, #5
 800081e:	9318      	str	r3, [sp, #96]	; 0x60
  if (HAL_TIM_ConfigClockSource(&htim1, &sClockSourceConfig) != HAL_OK)
 8000820:	a918      	add	r1, sp, #96	; 0x60
 8000822:	4826      	ldr	r0, [pc, #152]	; (80008bc <MX_TIM1_Init+0xec>)
 8000824:	f001 fdfa 	bl	800241c <HAL_TIM_ConfigClockSource>
 8000828:	2800      	cmp	r0, #0
 800082a:	d13d      	bne.n	80008a8 <MX_TIM1_Init+0xd8>
  if (HAL_TIM_PWM_Init(&htim1) != HAL_OK)
 800082c:	4823      	ldr	r0, [pc, #140]	; (80008bc <MX_TIM1_Init+0xec>)
 800082e:	f001 fcd7 	bl	80021e0 <HAL_TIM_PWM_Init>
 8000832:	2800      	cmp	r0, #0
 8000834:	d13a      	bne.n	80008ac <MX_TIM1_Init+0xdc>
  sMasterConfig.MasterOutputTrigger = TIM_TRGO_RESET;
 8000836:	2300      	movs	r3, #0
 8000838:	9315      	str	r3, [sp, #84]	; 0x54
  sMasterConfig.MasterOutputTrigger2 = TIM_TRGO2_RESET;
 800083a:	9316      	str	r3, [sp, #88]	; 0x58
  sMasterConfig.MasterSlaveMode = TIM_MASTERSLAVEMODE_DISABLE;
 800083c:	9317      	str	r3, [sp, #92]	; 0x5c
  if (HAL_TIMEx_MasterConfigSynchronization(&htim1, &sMasterConfig) != HAL_OK)
 800083e:	a915      	add	r1, sp, #84	; 0x54
 8000840:	481e      	ldr	r0, [pc, #120]	; (80008bc <MX_TIM1_Init+0xec>)
 8000842:	f002 f871 	bl	8002928 <HAL_TIMEx_MasterConfigSynchronization>
 8000846:	2800      	cmp	r0, #0
 8000848:	d132      	bne.n	80008b0 <MX_TIM1_Init+0xe0>
  sConfigOC.OCMode = TIM_OCMODE_PWM1;
 800084a:	2360      	movs	r3, #96	; 0x60
 800084c:	930e      	str	r3, [sp, #56]	; 0x38
  sConfigOC.Pulse = 0;
 800084e:	2300      	movs	r3, #0
 8000850:	930f      	str	r3, [sp, #60]	; 0x3c
  sConfigOC.OCPolarity = TIM_OCPOLARITY_HIGH;
 8000852:	9310      	str	r3, [sp, #64]	; 0x40
  sConfigOC.OCNPolarity = TIM_OCNPOLARITY_HIGH;
 8000854:	9311      	str	r3, [sp, #68]	; 0x44
  sConfigOC.OCFastMode = TIM_OCFAST_DISABLE;
 8000856:	9312      	str	r3, [sp, #72]	; 0x48
  sConfigOC.OCIdleState = TIM_OCIDLESTATE_RESET;
 8000858:	9313      	str	r3, [sp, #76]	; 0x4c
  sConfigOC.OCNIdleState = TIM_OCNIDLESTATE_RESET;
 800085a:	9314      	str	r3, [sp, #80]	; 0x50
  if (HAL_TIM_PWM_ConfigChannel(&htim1, &sConfigOC, TIM_CHANNEL_1) != HAL_OK)
 800085c:	2200      	movs	r2, #0
 800085e:	a90e      	add	r1, sp, #56	; 0x38
 8000860:	4816      	ldr	r0, [pc, #88]	; (80008bc <MX_TIM1_Init+0xec>)
 8000862:	f001 fd2d 	bl	80022c0 <HAL_TIM_PWM_ConfigChannel>
 8000866:	2800      	cmp	r0, #0
 8000868:	d124      	bne.n	80008b4 <MX_TIM1_Init+0xe4>
  sBreakDeadTimeConfig.OffStateRunMode = TIM_OSSR_DISABLE;
 800086a:	2300      	movs	r3, #0
 800086c:	9301      	str	r3, [sp, #4]
  sBreakDeadTimeConfig.OffStateIDLEMode = TIM_OSSI_DISABLE;
 800086e:	9302      	str	r3, [sp, #8]
  sBreakDeadTimeConfig.LockLevel = TIM_LOCKLEVEL_OFF;
 8000870:	9303      	str	r3, [sp, #12]
  sBreakDeadTimeConfig.DeadTime = 0;
 8000872:	9304      	str	r3, [sp, #16]
  sBreakDeadTimeConfig.BreakState = TIM_BREAK_DISABLE;
 8000874:	9305      	str	r3, [sp, #20]
  sBreakDeadTimeConfig.BreakPolarity = TIM_BREAKPOLARITY_HIGH;
 8000876:	2280      	movs	r2, #128	; 0x80
 8000878:	0192      	lsls	r2, r2, #6
 800087a:	9206      	str	r2, [sp, #24]
  sBreakDeadTimeConfig.BreakFilter = 0;
 800087c:	9307      	str	r3, [sp, #28]
  sBreakDeadTimeConfig.BreakAFMode = TIM_BREAK_AFMODE_INPUT;
 800087e:	9308      	str	r3, [sp, #32]
  sBreakDeadTimeConfig.Break2State = TIM_BREAK2_DISABLE;
 8000880:	9309      	str	r3, [sp, #36]	; 0x24
  sBreakDeadTimeConfig.Break2Polarity = TIM_BREAK2POLARITY_HIGH;
 8000882:	2280      	movs	r2, #128	; 0x80
 8000884:	0492      	lsls	r2, r2, #18
 8000886:	920a      	str	r2, [sp, #40]	; 0x28
  sBreakDeadTimeConfig.Break2Filter = 0;
 8000888:	930b      	str	r3, [sp, #44]	; 0x2c
  sBreakDeadTimeConfig.Break2AFMode = TIM_BREAK_AFMODE_INPUT;
 800088a:	930c      	str	r3, [sp, #48]	; 0x30
  sBreakDeadTimeConfig.AutomaticOutput = TIM_AUTOMATICOUTPUT_DISABLE;
 800088c:	930d      	str	r3, [sp, #52]	; 0x34
  if (HAL_TIMEx_ConfigBreakDeadTime(&htim1, &sBreakDeadTimeConfig) != HAL_OK)
 800088e:	a901      	add	r1, sp, #4
 8000890:	480a      	ldr	r0, [pc, #40]	; (80008bc <MX_TIM1_Init+0xec>)
 8000892:	f002 f885 	bl	80029a0 <HAL_TIMEx_ConfigBreakDeadTime>
 8000896:	2800      	cmp	r0, #0
 8000898:	d10e      	bne.n	80008b8 <MX_TIM1_Init+0xe8>
  HAL_TIM_MspPostInit(&htim1);
 800089a:	4808      	ldr	r0, [pc, #32]	; (80008bc <MX_TIM1_Init+0xec>)
 800089c:	f000 f8f0 	bl	8000a80 <HAL_TIM_MspPostInit>
}
 80008a0:	b01d      	add	sp, #116	; 0x74
 80008a2:	bd00      	pop	{pc}
    Error_Handler();
 80008a4:	f7ff ff6a 	bl	800077c <Error_Handler>
    Error_Handler();
 80008a8:	f7ff ff68 	bl	800077c <Error_Handler>
    Error_Handler();
 80008ac:	f7ff ff66 	bl	800077c <Error_Handler>
    Error_Handler();
 80008b0:	f7ff ff64 	bl	800077c <Error_Handler>
    Error_Handler();
 80008b4:	f7ff ff62 	bl	800077c <Error_Handler>
    Error_Handler();
 80008b8:	f7ff ff60 	bl	800077c <Error_Handler>
 80008bc:	200000ec 	.word	0x200000ec
 80008c0:	40012c00 	.word	0x40012c00

080008c4 <SystemClock_Config>:
{
 80008c4:	b500      	push	{lr}
 80008c6:	b09d      	sub	sp, #116	; 0x74
  RCC_OscInitTypeDef RCC_OscInitStruct = {0};
 80008c8:	2238      	movs	r2, #56	; 0x38
 80008ca:	2100      	movs	r1, #0
 80008cc:	a80e      	add	r0, sp, #56	; 0x38
 80008ce:	f002 f8f1 	bl	8002ab4 <memset>
  RCC_ClkInitTypeDef RCC_ClkInitStruct = {0};
 80008d2:	2210      	movs	r2, #16
 80008d4:	2100      	movs	r1, #0
 80008d6:	a80a      	add	r0, sp, #40	; 0x28
 80008d8:	f002 f8ec 	bl	8002ab4 <memset>
  RCC_PeriphCLKInitTypeDef PeriphClkInit = {0};
 80008dc:	2228      	movs	r2, #40	; 0x28
 80008de:	2100      	movs	r1, #0
 80008e0:	4668      	mov	r0, sp
 80008e2:	f002 f8e7 	bl	8002ab4 <memset>
  HAL_PWREx_ControlVoltageScaling(PWR_REGULATOR_VOLTAGE_SCALE1);
 80008e6:	2080      	movs	r0, #128	; 0x80
 80008e8:	0080      	lsls	r0, r0, #2
 80008ea:	f000 fc4f 	bl	800118c <HAL_PWREx_ControlVoltageScaling>
  RCC_OscInitStruct.OscillatorType = RCC_OSCILLATORTYPE_HSI|RCC_OSCILLATORTYPE_LSI;
 80008ee:	230a      	movs	r3, #10
 80008f0:	930e      	str	r3, [sp, #56]	; 0x38
  RCC_OscInitStruct.HSIState = RCC_HSI_ON;
 80008f2:	33f6      	adds	r3, #246	; 0xf6
 80008f4:	9311      	str	r3, [sp, #68]	; 0x44
  RCC_OscInitStruct.HSIDiv = RCC_HSI_DIV1;
 80008f6:	2300      	movs	r3, #0
 80008f8:	9312      	str	r3, [sp, #72]	; 0x48
  RCC_OscInitStruct.HSICalibrationValue = RCC_HSICALIBRATION_DEFAULT;
 80008fa:	2240      	movs	r2, #64	; 0x40
 80008fc:	9213      	str	r2, [sp, #76]	; 0x4c
  RCC_OscInitStruct.LSIState = RCC_LSI_ON;
 80008fe:	3a3f      	subs	r2, #63	; 0x3f
 8000900:	9214      	str	r2, [sp, #80]	; 0x50
  RCC_OscInitStruct.PLL.PLLState = RCC_PLL_ON;
 8000902:	3201      	adds	r2, #1
 8000904:	9215      	str	r2, [sp, #84]	; 0x54
  RCC_OscInitStruct.PLL.PLLSource = RCC_PLLSOURCE_HSI;
 8000906:	9216      	str	r2, [sp, #88]	; 0x58
  RCC_OscInitStruct.PLL.PLLM = RCC_PLLM_DIV1;
 8000908:	9317      	str	r3, [sp, #92]	; 0x5c
  RCC_OscInitStruct.PLL.PLLN = 12;
 800090a:	330c      	adds	r3, #12
 800090c:	9318      	str	r3, [sp, #96]	; 0x60
  RCC_OscInitStruct.PLL.PLLP = RCC_PLLP_DIV2;
 800090e:	2380      	movs	r3, #128	; 0x80
 8000910:	029b      	lsls	r3, r3, #10
 8000912:	9319      	str	r3, [sp, #100]	; 0x64
  RCC_OscInitStruct.PLL.PLLQ = RCC_PLLQ_DIV4;
 8000914:	23c0      	movs	r3, #192	; 0xc0
 8000916:	04db      	lsls	r3, r3, #19
 8000918:	931a      	str	r3, [sp, #104]	; 0x68
  RCC_OscInitStruct.PLL.PLLR = RCC_PLLR_DIV4;
 800091a:	23c0      	movs	r3, #192	; 0xc0
 800091c:	05db      	lsls	r3, r3, #23
 800091e:	931b      	str	r3, [sp, #108]	; 0x6c
  if (HAL_RCC_OscConfig(&RCC_OscInitStruct) != HAL_OK)
 8000920:	a80e      	add	r0, sp, #56	; 0x38
 8000922:	f000 fc5d 	bl	80011e0 <HAL_RCC_OscConfig>
 8000926:	2800      	cmp	r0, #0
 8000928:	d11b      	bne.n	8000962 <SystemClock_Config+0x9e>
  RCC_ClkInitStruct.ClockType = RCC_CLOCKTYPE_HCLK|RCC_CLOCKTYPE_SYSCLK
 800092a:	2307      	movs	r3, #7
 800092c:	930a      	str	r3, [sp, #40]	; 0x28
  RCC_ClkInitStruct.SYSCLKSource = RCC_SYSCLKSOURCE_PLLCLK;
 800092e:	3b05      	subs	r3, #5
 8000930:	930b      	str	r3, [sp, #44]	; 0x2c
  RCC_ClkInitStruct.AHBCLKDivider = RCC_SYSCLK_DIV1;
 8000932:	2300      	movs	r3, #0
 8000934:	930c      	str	r3, [sp, #48]	; 0x30
  RCC_ClkInitStruct.APB1CLKDivider = RCC_HCLK_DIV1;
 8000936:	930d      	str	r3, [sp, #52]	; 0x34
  if (HAL_RCC_ClockConfig(&RCC_ClkInitStruct, FLASH_LATENCY_1) != HAL_OK)
 8000938:	2101      	movs	r1, #1
 800093a:	a80a      	add	r0, sp, #40	; 0x28
 800093c:	f000 ff08 	bl	8001750 <HAL_RCC_ClockConfig>
 8000940:	2800      	cmp	r0, #0
 8000942:	d110      	bne.n	8000966 <SystemClock_Config+0xa2>
  PeriphClkInit.PeriphClockSelection = RCC_PERIPHCLK_RTC|RCC_PERIPHCLK_TIM1;
 8000944:	2388      	movs	r3, #136	; 0x88
 8000946:	039b      	lsls	r3, r3, #14
 8000948:	9300      	str	r3, [sp, #0]
  PeriphClkInit.Tim1ClockSelection = RCC_TIM1CLKSOURCE_PCLK1;
 800094a:	2300      	movs	r3, #0
 800094c:	9308      	str	r3, [sp, #32]
  PeriphClkInit.RTCClockSelection = RCC_RTCCLKSOURCE_LSI;
 800094e:	2380      	movs	r3, #128	; 0x80
 8000950:	009b      	lsls	r3, r3, #2
 8000952:	9309      	str	r3, [sp, #36]	; 0x24
  if (HAL_RCCEx_PeriphCLKConfig(&PeriphClkInit) != HAL_OK)
 8000954:	4668      	mov	r0, sp
 8000956:	f000 ffc1 	bl	80018dc <HAL_RCCEx_PeriphCLKConfig>
 800095a:	2800      	cmp	r0, #0
 800095c:	d105      	bne.n	800096a <SystemClock_Config+0xa6>
}
 800095e:	b01d      	add	sp, #116	; 0x74
 8000960:	bd00      	pop	{pc}
    Error_Handler();
 8000962:	f7ff ff0b 	bl	800077c <Error_Handler>
    Error_Handler();
 8000966:	f7ff ff09 	bl	800077c <Error_Handler>
    Error_Handler();
 800096a:	f7ff ff07 	bl	800077c <Error_Handler>

0800096e <main>:
{
 800096e:	b510      	push	{r4, lr}
  HAL_Init();
 8000970:	f000 f920 	bl	8000bb4 <HAL_Init>
  SystemClock_Config();
 8000974:	f7ff ffa6 	bl	80008c4 <SystemClock_Config>
  MX_GPIO_Init();
 8000978:	f7ff fe8e 	bl	8000698 <MX_GPIO_Init>
  MX_RTC_Init();
 800097c:	f7ff ff00 	bl	8000780 <MX_RTC_Init>
  MX_DMA_Init();
 8000980:	f7ff fee4 	bl	800074c <MX_DMA_Init>
  MX_TIM1_Init();
 8000984:	f7ff ff24 	bl	80007d0 <MX_TIM1_Init>
		RGB_Updaate();
 8000988:	f7ff fe62 	bl	8000650 <RGB_Updaate>
		HAL_Delay(20);
 800098c:	2014      	movs	r0, #20
 800098e:	f000 f937 	bl	8000c00 <HAL_Delay>
	while (1)
 8000992:	e7f9      	b.n	8000988 <main+0x1a>

08000994 <HAL_MspInit>:
void HAL_TIM_MspPostInit(TIM_HandleTypeDef *htim);
                    /**
  * Initializes the Global MSP.
  */
void HAL_MspInit(void)
{
 8000994:	b082      	sub	sp, #8
  /* USER CODE BEGIN MspInit 0 */

  /* USER CODE END MspInit 0 */

  __HAL_RCC_SYSCFG_CLK_ENABLE();
 8000996:	4b0a      	ldr	r3, [pc, #40]	; (80009c0 <HAL_MspInit+0x2c>)
 8000998:	6c19      	ldr	r1, [r3, #64]	; 0x40
 800099a:	2201      	movs	r2, #1
 800099c:	4311      	orrs	r1, r2
 800099e:	6419      	str	r1, [r3, #64]	; 0x40
 80009a0:	6c19      	ldr	r1, [r3, #64]	; 0x40
 80009a2:	400a      	ands	r2, r1
 80009a4:	9200      	str	r2, [sp, #0]
 80009a6:	9a00      	ldr	r2, [sp, #0]
  __HAL_RCC_PWR_CLK_ENABLE();
 80009a8:	6bda      	ldr	r2, [r3, #60]	; 0x3c
 80009aa:	2180      	movs	r1, #128	; 0x80
 80009ac:	0549      	lsls	r1, r1, #21
 80009ae:	430a      	orrs	r2, r1
 80009b0:	63da      	str	r2, [r3, #60]	; 0x3c
 80009b2:	6bdb      	ldr	r3, [r3, #60]	; 0x3c
 80009b4:	400b      	ands	r3, r1
 80009b6:	9301      	str	r3, [sp, #4]
 80009b8:	9b01      	ldr	r3, [sp, #4]
  /* System interrupt init*/

  /* USER CODE BEGIN MspInit 1 */

  /* USER CODE END MspInit 1 */
}
 80009ba:	b002      	add	sp, #8
 80009bc:	4770      	bx	lr
 80009be:	46c0      	nop			; (mov r8, r8)
 80009c0:	40021000 	.word	0x40021000

080009c4 <HAL_RTC_MspInit>:
* This function configures the hardware resources used in this example
* @param hrtc: RTC handle pointer
* @retval None
*/
void HAL_RTC_MspInit(RTC_HandleTypeDef* hrtc)
{
 80009c4:	b500      	push	{lr}
 80009c6:	b083      	sub	sp, #12
  if(hrtc->Instance==RTC)
 80009c8:	6802      	ldr	r2, [r0, #0]
 80009ca:	4b0e      	ldr	r3, [pc, #56]	; (8000a04 <HAL_RTC_MspInit+0x40>)
 80009cc:	429a      	cmp	r2, r3
 80009ce:	d001      	beq.n	80009d4 <HAL_RTC_MspInit+0x10>
  /* USER CODE BEGIN RTC_MspInit 1 */

  /* USER CODE END RTC_MspInit 1 */
  }

}
 80009d0:	b003      	add	sp, #12
 80009d2:	bd00      	pop	{pc}
    __HAL_RCC_RTC_ENABLE();
 80009d4:	4b0c      	ldr	r3, [pc, #48]	; (8000a08 <HAL_RTC_MspInit+0x44>)
 80009d6:	6dd9      	ldr	r1, [r3, #92]	; 0x5c
 80009d8:	2280      	movs	r2, #128	; 0x80
 80009da:	0212      	lsls	r2, r2, #8
 80009dc:	430a      	orrs	r2, r1
 80009de:	65da      	str	r2, [r3, #92]	; 0x5c
    __HAL_RCC_RTCAPB_CLK_ENABLE();
 80009e0:	6bda      	ldr	r2, [r3, #60]	; 0x3c
 80009e2:	2180      	movs	r1, #128	; 0x80
 80009e4:	00c9      	lsls	r1, r1, #3
 80009e6:	430a      	orrs	r2, r1
 80009e8:	63da      	str	r2, [r3, #60]	; 0x3c
 80009ea:	6bdb      	ldr	r3, [r3, #60]	; 0x3c
 80009ec:	400b      	ands	r3, r1
 80009ee:	9301      	str	r3, [sp, #4]
 80009f0:	9b01      	ldr	r3, [sp, #4]
    HAL_NVIC_SetPriority(RTC_TAMP_IRQn, 3, 0);
 80009f2:	2200      	movs	r2, #0
 80009f4:	2103      	movs	r1, #3
 80009f6:	2002      	movs	r0, #2
 80009f8:	f000 f914 	bl	8000c24 <HAL_NVIC_SetPriority>
    HAL_NVIC_EnableIRQ(RTC_TAMP_IRQn);
 80009fc:	2002      	movs	r0, #2
 80009fe:	f000 f941 	bl	8000c84 <HAL_NVIC_EnableIRQ>
}
 8000a02:	e7e5      	b.n	80009d0 <HAL_RTC_MspInit+0xc>
 8000a04:	40002800 	.word	0x40002800
 8000a08:	40021000 	.word	0x40021000

08000a0c <HAL_TIM_Base_MspInit>:
* This function configures the hardware resources used in this example
* @param htim_base: TIM_Base handle pointer
* @retval None
*/
void HAL_TIM_Base_MspInit(TIM_HandleTypeDef* htim_base)
{
 8000a0c:	b510      	push	{r4, lr}
 8000a0e:	b082      	sub	sp, #8
 8000a10:	0004      	movs	r4, r0
  if(htim_base->Instance==TIM1)
 8000a12:	4b17      	ldr	r3, [pc, #92]	; (8000a70 <HAL_TIM_Base_MspInit+0x64>)
 8000a14:	6802      	ldr	r2, [r0, #0]
 8000a16:	429a      	cmp	r2, r3
 8000a18:	d001      	beq.n	8000a1e <HAL_TIM_Base_MspInit+0x12>
  /* USER CODE BEGIN TIM1_MspInit 1 */

  /* USER CODE END TIM1_MspInit 1 */
  }

}
 8000a1a:	b002      	add	sp, #8
 8000a1c:	bd10      	pop	{r4, pc}
    __HAL_RCC_TIM1_CLK_ENABLE();
 8000a1e:	4a15      	ldr	r2, [pc, #84]	; (8000a74 <HAL_TIM_Base_MspInit+0x68>)
 8000a20:	6c11      	ldr	r1, [r2, #64]	; 0x40
 8000a22:	2080      	movs	r0, #128	; 0x80
 8000a24:	0100      	lsls	r0, r0, #4
 8000a26:	4301      	orrs	r1, r0
 8000a28:	6411      	str	r1, [r2, #64]	; 0x40
 8000a2a:	6c13      	ldr	r3, [r2, #64]	; 0x40
 8000a2c:	4003      	ands	r3, r0
 8000a2e:	9301      	str	r3, [sp, #4]
 8000a30:	9b01      	ldr	r3, [sp, #4]
    hdma_tim1_ch1.Instance = DMA1_Channel1;
 8000a32:	4811      	ldr	r0, [pc, #68]	; (8000a78 <HAL_TIM_Base_MspInit+0x6c>)
 8000a34:	4b11      	ldr	r3, [pc, #68]	; (8000a7c <HAL_TIM_Base_MspInit+0x70>)
 8000a36:	6003      	str	r3, [r0, #0]
    hdma_tim1_ch1.Init.Request = DMA_REQUEST_TIM1_CH1;
 8000a38:	2314      	movs	r3, #20
 8000a3a:	6043      	str	r3, [r0, #4]
    hdma_tim1_ch1.Init.Direction = DMA_MEMORY_TO_PERIPH;
 8000a3c:	3b04      	subs	r3, #4
 8000a3e:	6083      	str	r3, [r0, #8]
    hdma_tim1_ch1.Init.PeriphInc = DMA_PINC_DISABLE;
 8000a40:	2300      	movs	r3, #0
 8000a42:	60c3      	str	r3, [r0, #12]
    hdma_tim1_ch1.Init.MemInc = DMA_MINC_ENABLE;
 8000a44:	2280      	movs	r2, #128	; 0x80
 8000a46:	6102      	str	r2, [r0, #16]
    hdma_tim1_ch1.Init.PeriphDataAlignment = DMA_PDATAALIGN_WORD;
 8000a48:	3281      	adds	r2, #129	; 0x81
 8000a4a:	32ff      	adds	r2, #255	; 0xff
 8000a4c:	6142      	str	r2, [r0, #20]
    hdma_tim1_ch1.Init.MemDataAlignment = DMA_MDATAALIGN_BYTE;
 8000a4e:	6183      	str	r3, [r0, #24]
    hdma_tim1_ch1.Init.Mode = DMA_CIRCULAR;
 8000a50:	3ae1      	subs	r2, #225	; 0xe1
 8000a52:	3aff      	subs	r2, #255	; 0xff
 8000a54:	61c2      	str	r2, [r0, #28]
    hdma_tim1_ch1.Init.Priority = DMA_PRIORITY_LOW;
 8000a56:	6203      	str	r3, [r0, #32]
    if (HAL_DMA_Init(&hdma_tim1_ch1) != HAL_OK)
 8000a58:	f000 f990 	bl	8000d7c <HAL_DMA_Init>
 8000a5c:	2800      	cmp	r0, #0
 8000a5e:	d103      	bne.n	8000a68 <HAL_TIM_Base_MspInit+0x5c>
    __HAL_LINKDMA(htim_base,hdma[TIM_DMA_ID_CC1],hdma_tim1_ch1);
 8000a60:	4b05      	ldr	r3, [pc, #20]	; (8000a78 <HAL_TIM_Base_MspInit+0x6c>)
 8000a62:	6263      	str	r3, [r4, #36]	; 0x24
 8000a64:	629c      	str	r4, [r3, #40]	; 0x28
}
 8000a66:	e7d8      	b.n	8000a1a <HAL_TIM_Base_MspInit+0xe>
      Error_Handler();
 8000a68:	f7ff fe88 	bl	800077c <Error_Handler>
 8000a6c:	e7f8      	b.n	8000a60 <HAL_TIM_Base_MspInit+0x54>
 8000a6e:	46c0      	nop			; (mov r8, r8)
 8000a70:	40012c00 	.word	0x40012c00
 8000a74:	40021000 	.word	0x40021000
 8000a78:	20000064 	.word	0x20000064
 8000a7c:	40020008 	.word	0x40020008

08000a80 <HAL_TIM_MspPostInit>:

void HAL_TIM_MspPostInit(TIM_HandleTypeDef* htim)
{
 8000a80:	b510      	push	{r4, lr}
 8000a82:	b086      	sub	sp, #24
 8000a84:	0004      	movs	r4, r0
  GPIO_InitTypeDef GPIO_InitStruct = {0};
 8000a86:	2214      	movs	r2, #20
 8000a88:	2100      	movs	r1, #0
 8000a8a:	a801      	add	r0, sp, #4
 8000a8c:	f002 f812 	bl	8002ab4 <memset>
  if(htim->Instance==TIM1)
 8000a90:	6822      	ldr	r2, [r4, #0]
 8000a92:	4b0e      	ldr	r3, [pc, #56]	; (8000acc <HAL_TIM_MspPostInit+0x4c>)
 8000a94:	429a      	cmp	r2, r3
 8000a96:	d001      	beq.n	8000a9c <HAL_TIM_MspPostInit+0x1c>
  /* USER CODE BEGIN TIM1_MspPostInit 1 */

  /* USER CODE END TIM1_MspPostInit 1 */
  }

}
 8000a98:	b006      	add	sp, #24
 8000a9a:	bd10      	pop	{r4, pc}
    __HAL_RCC_GPIOA_CLK_ENABLE();
 8000a9c:	4a0c      	ldr	r2, [pc, #48]	; (8000ad0 <HAL_TIM_MspPostInit+0x50>)
 8000a9e:	6b51      	ldr	r1, [r2, #52]	; 0x34
 8000aa0:	2301      	movs	r3, #1
 8000aa2:	4319      	orrs	r1, r3
 8000aa4:	6351      	str	r1, [r2, #52]	; 0x34
 8000aa6:	6b52      	ldr	r2, [r2, #52]	; 0x34
 8000aa8:	4013      	ands	r3, r2
 8000aaa:	9300      	str	r3, [sp, #0]
 8000aac:	9b00      	ldr	r3, [sp, #0]
    GPIO_InitStruct.Pin = GPIO_PIN_8;
 8000aae:	2380      	movs	r3, #128	; 0x80
 8000ab0:	005b      	lsls	r3, r3, #1
 8000ab2:	9301      	str	r3, [sp, #4]
    GPIO_InitStruct.Mode = GPIO_MODE_AF_PP;
 8000ab4:	3bfe      	subs	r3, #254	; 0xfe
 8000ab6:	9302      	str	r3, [sp, #8]
    GPIO_InitStruct.Pull = GPIO_NOPULL;
 8000ab8:	2200      	movs	r2, #0
 8000aba:	9203      	str	r2, [sp, #12]
    GPIO_InitStruct.Speed = GPIO_SPEED_FREQ_HIGH;
 8000abc:	9304      	str	r3, [sp, #16]
    GPIO_InitStruct.Alternate = GPIO_AF2_TIM1;
 8000abe:	9305      	str	r3, [sp, #20]
    HAL_GPIO_Init(GPIOA, &GPIO_InitStruct);
 8000ac0:	20a0      	movs	r0, #160	; 0xa0
 8000ac2:	a901      	add	r1, sp, #4
 8000ac4:	05c0      	lsls	r0, r0, #23
 8000ac6:	f000 faa5 	bl	8001014 <HAL_GPIO_Init>
}
 8000aca:	e7e5      	b.n	8000a98 <HAL_TIM_MspPostInit+0x18>
 8000acc:	40012c00 	.word	0x40012c00
 8000ad0:	40021000 	.word	0x40021000

08000ad4 <NMI_Handler>:
{
  /* USER CODE BEGIN NonMaskableInt_IRQn 0 */

  /* USER CODE END NonMaskableInt_IRQn 0 */
  /* USER CODE BEGIN NonMaskableInt_IRQn 1 */
  while (1)
 8000ad4:	e7fe      	b.n	8000ad4 <NMI_Handler>

08000ad6 <HardFault_Handler>:
void HardFault_Handler(void)
{
  /* USER CODE BEGIN HardFault_IRQn 0 */

  /* USER CODE END HardFault_IRQn 0 */
  while (1)
 8000ad6:	e7fe      	b.n	8000ad6 <HardFault_Handler>

08000ad8 <SVC_Handler>:

  /* USER CODE END SVC_IRQn 0 */
  /* USER CODE BEGIN SVC_IRQn 1 */

  /* USER CODE END SVC_IRQn 1 */
}
 8000ad8:	4770      	bx	lr

08000ada <PendSV_Handler>:

  /* USER CODE END PendSV_IRQn 0 */
  /* USER CODE BEGIN PendSV_IRQn 1 */

  /* USER CODE END PendSV_IRQn 1 */
}
 8000ada:	4770      	bx	lr

08000adc <SysTick_Handler>:

/**
  * @brief This function handles System tick timer.
  */
void SysTick_Handler(void)
{
 8000adc:	b510      	push	{r4, lr}
  /* USER CODE BEGIN SysTick_IRQn 0 */

  /* USER CODE END SysTick_IRQn 0 */
  HAL_IncTick();
 8000ade:	f000 f87d 	bl	8000bdc <HAL_IncTick>
  /* USER CODE BEGIN SysTick_IRQn 1 */

  /* USER CODE END SysTick_IRQn 1 */
}
 8000ae2:	bd10      	pop	{r4, pc}

08000ae4 <RTC_TAMP_IRQHandler>:

/**
  * @brief This function handles RTC and TAMP interrupts through EXTI lines 19 and 21.
  */
void RTC_TAMP_IRQHandler(void)
{
 8000ae4:	b510      	push	{r4, lr}
  /* USER CODE BEGIN RTC_TAMP_IRQn 0 */

  /* USER CODE END RTC_TAMP_IRQn 0 */
  HAL_RTCEx_WakeUpTimerIRQHandler(&hrtc);
 8000ae6:	4802      	ldr	r0, [pc, #8]	; (8000af0 <RTC_TAMP_IRQHandler+0xc>)
 8000ae8:	f001 f919 	bl	8001d1e <HAL_RTCEx_WakeUpTimerIRQHandler>
  /* USER CODE BEGIN RTC_TAMP_IRQn 1 */

  /* USER CODE END RTC_TAMP_IRQn 1 */
}
 8000aec:	bd10      	pop	{r4, pc}
 8000aee:	46c0      	nop			; (mov r8, r8)
 8000af0:	200000c0 	.word	0x200000c0

08000af4 <DMA1_Channel1_IRQHandler>:

/**
  * @brief This function handles DMA1 channel 1 interrupt.
  */
void DMA1_Channel1_IRQHandler(void)
{
 8000af4:	b510      	push	{r4, lr}
  /* USER CODE BEGIN DMA1_Channel1_IRQn 0 */

  /* USER CODE END DMA1_Channel1_IRQn 0 */
  HAL_DMA_IRQHandler(&hdma_tim1_ch1);
 8000af6:	4802      	ldr	r0, [pc, #8]	; (8000b00 <DMA1_Channel1_IRQHandler+0xc>)
 8000af8:	f000 fa26 	bl	8000f48 <HAL_DMA_IRQHandler>
  /* USER CODE BEGIN DMA1_Channel1_IRQn 1 */

  /* USER CODE END DMA1_Channel1_IRQn 1 */
}
 8000afc:	bd10      	pop	{r4, pc}
 8000afe:	46c0      	nop			; (mov r8, r8)
 8000b00:	20000064 	.word	0x20000064

08000b04 <SystemInit>:
{
  /* Configure the Vector Table location -------------------------------------*/
#if defined(USER_VECT_TAB_ADDRESS)
  SCB->VTOR = VECT_TAB_BASE_ADDRESS | VECT_TAB_OFFSET; /* Vector Table Relocation */
#endif /* USER_VECT_TAB_ADDRESS */
}
 8000b04:	4770      	bx	lr
	...

08000b08 <Reset_Handler>:

  .section .text.Reset_Handler
  .weak Reset_Handler
  .type Reset_Handler, %function
Reset_Handler:
  ldr   r0, =_estack
 8000b08:	480d      	ldr	r0, [pc, #52]	; (8000b40 <LoopForever+0x2>)
  mov   sp, r0          /* set stack pointer */
 8000b0a:	4685      	mov	sp, r0

/* Call the clock system initialization function.*/
  bl  SystemInit
 8000b0c:	f7ff fffa 	bl	8000b04 <SystemInit>

/* Copy the data segment initializers from flash to SRAM */
  ldr r0, =_sdata
 8000b10:	480c      	ldr	r0, [pc, #48]	; (8000b44 <LoopForever+0x6>)
  ldr r1, =_edata
 8000b12:	490d      	ldr	r1, [pc, #52]	; (8000b48 <LoopForever+0xa>)
  ldr r2, =_sidata
 8000b14:	4a0d      	ldr	r2, [pc, #52]	; (8000b4c <LoopForever+0xe>)
  movs r3, #0
 8000b16:	2300      	movs	r3, #0
  b LoopCopyDataInit
 8000b18:	e002      	b.n	8000b20 <LoopCopyDataInit>

08000b1a <CopyDataInit>:

CopyDataInit:
  ldr r4, [r2, r3]
 8000b1a:	58d4      	ldr	r4, [r2, r3]
  str r4, [r0, r3]
 8000b1c:	50c4      	str	r4, [r0, r3]
  adds r3, r3, #4
 8000b1e:	3304      	adds	r3, #4

08000b20 <LoopCopyDataInit>:

LoopCopyDataInit:
  adds r4, r0, r3
 8000b20:	18c4      	adds	r4, r0, r3
  cmp r4, r1
 8000b22:	428c      	cmp	r4, r1
  bcc CopyDataInit
 8000b24:	d3f9      	bcc.n	8000b1a <CopyDataInit>

/* Zero fill the bss segment. */
  ldr r2, =_sbss
 8000b26:	4a0a      	ldr	r2, [pc, #40]	; (8000b50 <LoopForever+0x12>)
  ldr r4, =_ebss
 8000b28:	4c0a      	ldr	r4, [pc, #40]	; (8000b54 <LoopForever+0x16>)
  movs r3, #0
 8000b2a:	2300      	movs	r3, #0
  b LoopFillZerobss
 8000b2c:	e001      	b.n	8000b32 <LoopFillZerobss>

08000b2e <FillZerobss>:

FillZerobss:
  str  r3, [r2]
 8000b2e:	6013      	str	r3, [r2, #0]
  adds r2, r2, #4
 8000b30:	3204      	adds	r2, #4

08000b32 <LoopFillZerobss>:

LoopFillZerobss:
  cmp r2, r4
 8000b32:	42a2      	cmp	r2, r4
  bcc FillZerobss
 8000b34:	d3fb      	bcc.n	8000b2e <FillZerobss>

/* Call static constructors */
  bl __libc_init_array
 8000b36:	f001 ff99 	bl	8002a6c <__libc_init_array>
/* Call the application s entry point.*/
  bl main
 8000b3a:	f7ff ff18 	bl	800096e <main>

08000b3e <LoopForever>:

LoopForever:
  b LoopForever
 8000b3e:	e7fe      	b.n	8000b3e <LoopForever>
  ldr   r0, =_estack
 8000b40:	20002000 	.word	0x20002000
  ldr r0, =_sdata
 8000b44:	20000000 	.word	0x20000000
  ldr r1, =_edata
 8000b48:	2000000c 	.word	0x2000000c
  ldr r2, =_sidata
 8000b4c:	08002b8c 	.word	0x08002b8c
  ldr r2, =_sbss
 8000b50:	2000000c 	.word	0x2000000c
  ldr r4, =_ebss
 8000b54:	2000013c 	.word	0x2000013c

08000b58 <ADC1_IRQHandler>:
 * @retval None
*/
  .section .text.Default_Handler,"ax",%progbits
Default_Handler:
Infinite_Loop:
  b Infinite_Loop
 8000b58:	e7fe      	b.n	8000b58 <ADC1_IRQHandler>
	...

08000b5c <HAL_InitTick>:
  *       implementation  in user file.
  * @param TickPriority Tick interrupt priority.
  * @retval HAL status
  */
__weak HAL_StatusTypeDef HAL_InitTick(uint32_t TickPriority)
{
 8000b5c:	b510      	push	{r4, lr}
 8000b5e:	0004      	movs	r4, r0
  HAL_StatusTypeDef  status = HAL_OK;

  /* Check uwTickFreq for MisraC 2012 (even if uwTickFreq is a enum type that doesn't take the value zero)*/ 
  if ((uint32_t)uwTickFreq != 0U)
 8000b60:	4b11      	ldr	r3, [pc, #68]	; (8000ba8 <HAL_InitTick+0x4c>)
 8000b62:	7819      	ldrb	r1, [r3, #0]
 8000b64:	2900      	cmp	r1, #0
 8000b66:	d101      	bne.n	8000b6c <HAL_InitTick+0x10>
      status = HAL_ERROR;
    }
  }
  else
  {
    status = HAL_ERROR;
 8000b68:	2001      	movs	r0, #1
  }

  /* Return function status */
  return status;
}
 8000b6a:	bd10      	pop	{r4, pc}
    if (HAL_SYSTICK_Config(SystemCoreClock / (1000U /(uint32_t)uwTickFreq)) == 0U)
 8000b6c:	20fa      	movs	r0, #250	; 0xfa
 8000b6e:	0080      	lsls	r0, r0, #2
 8000b70:	f7ff fac8 	bl	8000104 <__udivsi3>
 8000b74:	0001      	movs	r1, r0
 8000b76:	4b0d      	ldr	r3, [pc, #52]	; (8000bac <HAL_InitTick+0x50>)
 8000b78:	6818      	ldr	r0, [r3, #0]
 8000b7a:	f7ff fac3 	bl	8000104 <__udivsi3>
 8000b7e:	f000 f88d 	bl	8000c9c <HAL_SYSTICK_Config>
 8000b82:	2800      	cmp	r0, #0
 8000b84:	d10d      	bne.n	8000ba2 <HAL_InitTick+0x46>
      if (TickPriority < (1UL << __NVIC_PRIO_BITS))
 8000b86:	2c03      	cmp	r4, #3
 8000b88:	d901      	bls.n	8000b8e <HAL_InitTick+0x32>
        status = HAL_ERROR;
 8000b8a:	2001      	movs	r0, #1
 8000b8c:	e7ed      	b.n	8000b6a <HAL_InitTick+0xe>
        HAL_NVIC_SetPriority(SysTick_IRQn, TickPriority, 0U);
 8000b8e:	3001      	adds	r0, #1
 8000b90:	2200      	movs	r2, #0
 8000b92:	0021      	movs	r1, r4
 8000b94:	4240      	negs	r0, r0
 8000b96:	f000 f845 	bl	8000c24 <HAL_NVIC_SetPriority>
        uwTickPrio = TickPriority;
 8000b9a:	4b05      	ldr	r3, [pc, #20]	; (8000bb0 <HAL_InitTick+0x54>)
 8000b9c:	601c      	str	r4, [r3, #0]
  HAL_StatusTypeDef  status = HAL_OK;
 8000b9e:	2000      	movs	r0, #0
 8000ba0:	e7e3      	b.n	8000b6a <HAL_InitTick+0xe>
      status = HAL_ERROR;
 8000ba2:	2001      	movs	r0, #1
 8000ba4:	e7e1      	b.n	8000b6a <HAL_InitTick+0xe>
 8000ba6:	46c0      	nop			; (mov r8, r8)
 8000ba8:	20000004 	.word	0x20000004
 8000bac:	20000000 	.word	0x20000000
 8000bb0:	20000008 	.word	0x20000008

08000bb4 <HAL_Init>:
{
 8000bb4:	b510      	push	{r4, lr}
  __HAL_FLASH_PREFETCH_BUFFER_ENABLE();
 8000bb6:	4a08      	ldr	r2, [pc, #32]	; (8000bd8 <HAL_Init+0x24>)
 8000bb8:	6811      	ldr	r1, [r2, #0]
 8000bba:	2380      	movs	r3, #128	; 0x80
 8000bbc:	005b      	lsls	r3, r3, #1
 8000bbe:	430b      	orrs	r3, r1
 8000bc0:	6013      	str	r3, [r2, #0]
  if (HAL_InitTick(TICK_INT_PRIORITY) != HAL_OK)
 8000bc2:	2003      	movs	r0, #3
 8000bc4:	f7ff ffca 	bl	8000b5c <HAL_InitTick>
 8000bc8:	1e04      	subs	r4, r0, #0
 8000bca:	d002      	beq.n	8000bd2 <HAL_Init+0x1e>
    status = HAL_ERROR;
 8000bcc:	2401      	movs	r4, #1
}
 8000bce:	0020      	movs	r0, r4
 8000bd0:	bd10      	pop	{r4, pc}
  HAL_MspInit();
 8000bd2:	f7ff fedf 	bl	8000994 <HAL_MspInit>
 8000bd6:	e7fa      	b.n	8000bce <HAL_Init+0x1a>
 8000bd8:	40022000 	.word	0x40022000

08000bdc <HAL_IncTick>:
  *      implementations in user file.
  * @retval None
  */
__weak void HAL_IncTick(void)
{
  uwTick += (uint32_t)uwTickFreq;
 8000bdc:	4b03      	ldr	r3, [pc, #12]	; (8000bec <HAL_IncTick+0x10>)
 8000bde:	781b      	ldrb	r3, [r3, #0]
 8000be0:	4a03      	ldr	r2, [pc, #12]	; (8000bf0 <HAL_IncTick+0x14>)
 8000be2:	6811      	ldr	r1, [r2, #0]
 8000be4:	185b      	adds	r3, r3, r1
 8000be6:	6013      	str	r3, [r2, #0]
}
 8000be8:	4770      	bx	lr
 8000bea:	46c0      	nop			; (mov r8, r8)
 8000bec:	20000004 	.word	0x20000004
 8000bf0:	20000138 	.word	0x20000138

08000bf4 <HAL_GetTick>:
  *       implementations in user file.
  * @retval tick value
  */
__weak uint32_t HAL_GetTick(void)
{
  return uwTick;
 8000bf4:	4b01      	ldr	r3, [pc, #4]	; (8000bfc <HAL_GetTick+0x8>)
 8000bf6:	6818      	ldr	r0, [r3, #0]
}
 8000bf8:	4770      	bx	lr
 8000bfa:	46c0      	nop			; (mov r8, r8)
 8000bfc:	20000138 	.word	0x20000138

08000c00 <HAL_Delay>:
  *       implementations in user file.
  * @param Delay  specifies the delay time length, in milliseconds.
  * @retval None
  */
__weak void HAL_Delay(uint32_t Delay)
{
 8000c00:	b570      	push	{r4, r5, r6, lr}
 8000c02:	0004      	movs	r4, r0
  uint32_t tickstart = HAL_GetTick();
 8000c04:	f7ff fff6 	bl	8000bf4 <HAL_GetTick>
 8000c08:	0005      	movs	r5, r0
  uint32_t wait = Delay;

  /* Add a freq to guarantee minimum wait */
  if (wait < HAL_MAX_DELAY)
 8000c0a:	1c63      	adds	r3, r4, #1
 8000c0c:	d002      	beq.n	8000c14 <HAL_Delay+0x14>
  {
    wait += (uint32_t)(uwTickFreq);
 8000c0e:	4b04      	ldr	r3, [pc, #16]	; (8000c20 <HAL_Delay+0x20>)
 8000c10:	781b      	ldrb	r3, [r3, #0]
 8000c12:	18e4      	adds	r4, r4, r3
  }

  while ((HAL_GetTick() - tickstart) < wait)
 8000c14:	f7ff ffee 	bl	8000bf4 <HAL_GetTick>
 8000c18:	1b40      	subs	r0, r0, r5
 8000c1a:	42a0      	cmp	r0, r4
 8000c1c:	d3fa      	bcc.n	8000c14 <HAL_Delay+0x14>
  {
  }
}
 8000c1e:	bd70      	pop	{r4, r5, r6, pc}
 8000c20:	20000004 	.word	0x20000004

08000c24 <HAL_NVIC_SetPriority>:
  *         with stm32g0xx devices, this parameter is a dummy value and it is ignored, because
  *         no subpriority supported in Cortex M0+ based products.
  * @retval None
  */
void HAL_NVIC_SetPriority(IRQn_Type IRQn, uint32_t PreemptPriority, uint32_t SubPriority)
{
 8000c24:	b570      	push	{r4, r5, r6, lr}
  \param [in]  priority  Priority to set.
  \note    The priority cannot be set for every processor exception.
 */
__STATIC_INLINE void __NVIC_SetPriority(IRQn_Type IRQn, uint32_t priority)
{
  if ((int32_t)(IRQn) >= 0)
 8000c26:	2800      	cmp	r0, #0
 8000c28:	db11      	blt.n	8000c4e <HAL_NVIC_SetPriority+0x2a>
  {
    NVIC->IP[_IP_IDX(IRQn)]  = ((uint32_t)(NVIC->IP[_IP_IDX(IRQn)]  & ~(0xFFUL << _BIT_SHIFT(IRQn))) |
 8000c2a:	0883      	lsrs	r3, r0, #2
 8000c2c:	4e13      	ldr	r6, [pc, #76]	; (8000c7c <HAL_NVIC_SetPriority+0x58>)
 8000c2e:	33c0      	adds	r3, #192	; 0xc0
 8000c30:	009b      	lsls	r3, r3, #2
 8000c32:	599d      	ldr	r5, [r3, r6]
 8000c34:	2403      	movs	r4, #3
 8000c36:	4020      	ands	r0, r4
 8000c38:	00c0      	lsls	r0, r0, #3
 8000c3a:	22ff      	movs	r2, #255	; 0xff
 8000c3c:	0014      	movs	r4, r2
 8000c3e:	4084      	lsls	r4, r0
 8000c40:	43a5      	bics	r5, r4
       (((priority << (8U - __NVIC_PRIO_BITS)) & (uint32_t)0xFFUL) << _BIT_SHIFT(IRQn)));
 8000c42:	0189      	lsls	r1, r1, #6
 8000c44:	400a      	ands	r2, r1
 8000c46:	4082      	lsls	r2, r0
    NVIC->IP[_IP_IDX(IRQn)]  = ((uint32_t)(NVIC->IP[_IP_IDX(IRQn)]  & ~(0xFFUL << _BIT_SHIFT(IRQn))) |
 8000c48:	432a      	orrs	r2, r5
 8000c4a:	519a      	str	r2, [r3, r6]
  UNUSED(SubPriority);

  /* Check the parameters */
  assert_param(IS_NVIC_PREEMPTION_PRIORITY(PreemptPriority));
  NVIC_SetPriority(IRQn, PreemptPriority);
}
 8000c4c:	bd70      	pop	{r4, r5, r6, pc}
  }
  else
  {
    SCB->SHP[_SHP_IDX(IRQn)] = ((uint32_t)(SCB->SHP[_SHP_IDX(IRQn)] & ~(0xFFUL << _BIT_SHIFT(IRQn))) |
 8000c4e:	230f      	movs	r3, #15
 8000c50:	4003      	ands	r3, r0
 8000c52:	3b08      	subs	r3, #8
 8000c54:	089b      	lsrs	r3, r3, #2
 8000c56:	3306      	adds	r3, #6
 8000c58:	009b      	lsls	r3, r3, #2
 8000c5a:	4a09      	ldr	r2, [pc, #36]	; (8000c80 <HAL_NVIC_SetPriority+0x5c>)
 8000c5c:	4694      	mov	ip, r2
 8000c5e:	4463      	add	r3, ip
 8000c60:	685c      	ldr	r4, [r3, #4]
 8000c62:	2203      	movs	r2, #3
 8000c64:	4010      	ands	r0, r2
 8000c66:	00c0      	lsls	r0, r0, #3
 8000c68:	32fc      	adds	r2, #252	; 0xfc
 8000c6a:	0015      	movs	r5, r2
 8000c6c:	4085      	lsls	r5, r0
 8000c6e:	43ac      	bics	r4, r5
       (((priority << (8U - __NVIC_PRIO_BITS)) & (uint32_t)0xFFUL) << _BIT_SHIFT(IRQn)));
 8000c70:	0189      	lsls	r1, r1, #6
 8000c72:	400a      	ands	r2, r1
 8000c74:	4082      	lsls	r2, r0
    SCB->SHP[_SHP_IDX(IRQn)] = ((uint32_t)(SCB->SHP[_SHP_IDX(IRQn)] & ~(0xFFUL << _BIT_SHIFT(IRQn))) |
 8000c76:	4322      	orrs	r2, r4
 8000c78:	605a      	str	r2, [r3, #4]
 8000c7a:	e7e7      	b.n	8000c4c <HAL_NVIC_SetPriority+0x28>
 8000c7c:	e000e100 	.word	0xe000e100
 8000c80:	e000ed00 	.word	0xe000ed00

08000c84 <HAL_NVIC_EnableIRQ>:
  if ((int32_t)(IRQn) >= 0)
 8000c84:	2800      	cmp	r0, #0
 8000c86:	db05      	blt.n	8000c94 <HAL_NVIC_EnableIRQ+0x10>
    NVIC->ISER[0U] = (uint32_t)(1UL << (((uint32_t)IRQn) & 0x1FUL));
 8000c88:	231f      	movs	r3, #31
 8000c8a:	4018      	ands	r0, r3
 8000c8c:	3b1e      	subs	r3, #30
 8000c8e:	4083      	lsls	r3, r0
 8000c90:	4a01      	ldr	r2, [pc, #4]	; (8000c98 <HAL_NVIC_EnableIRQ+0x14>)
 8000c92:	6013      	str	r3, [r2, #0]
  /* Check the parameters */
  assert_param(IS_NVIC_DEVICE_IRQ(IRQn));

  /* Enable interrupt */
  NVIC_EnableIRQ(IRQn);
}
 8000c94:	4770      	bx	lr
 8000c96:	46c0      	nop			; (mov r8, r8)
 8000c98:	e000e100 	.word	0xe000e100

08000c9c <HAL_SYSTICK_Config>:
           function <b>SysTick_Config</b> is not included. In this case, the file <b><i>device</i>.h</b>
           must contain a vendor-specific implementation of this function.
 */
__STATIC_INLINE uint32_t SysTick_Config(uint32_t ticks)
{
  if ((ticks - 1UL) > SysTick_LOAD_RELOAD_Msk)
 8000c9c:	3801      	subs	r0, #1
 8000c9e:	2380      	movs	r3, #128	; 0x80
 8000ca0:	045b      	lsls	r3, r3, #17
 8000ca2:	4298      	cmp	r0, r3
 8000ca4:	d20f      	bcs.n	8000cc6 <HAL_SYSTICK_Config+0x2a>
  {
    return (1UL);                                                   /* Reload value impossible */
  }

  SysTick->LOAD  = (uint32_t)(ticks - 1UL);                         /* set reload register */
 8000ca6:	4a09      	ldr	r2, [pc, #36]	; (8000ccc <HAL_SYSTICK_Config+0x30>)
 8000ca8:	6050      	str	r0, [r2, #4]
    SCB->SHP[_SHP_IDX(IRQn)] = ((uint32_t)(SCB->SHP[_SHP_IDX(IRQn)] & ~(0xFFUL << _BIT_SHIFT(IRQn))) |
 8000caa:	4809      	ldr	r0, [pc, #36]	; (8000cd0 <HAL_SYSTICK_Config+0x34>)
 8000cac:	6a03      	ldr	r3, [r0, #32]
 8000cae:	021b      	lsls	r3, r3, #8
 8000cb0:	0a1b      	lsrs	r3, r3, #8
 8000cb2:	21c0      	movs	r1, #192	; 0xc0
 8000cb4:	0609      	lsls	r1, r1, #24
 8000cb6:	430b      	orrs	r3, r1
 8000cb8:	6203      	str	r3, [r0, #32]
  NVIC_SetPriority (SysTick_IRQn, (1UL << __NVIC_PRIO_BITS) - 1UL); /* set Priority for Systick Interrupt */
  SysTick->VAL   = 0UL;                                             /* Load the SysTick Counter Value */
 8000cba:	2300      	movs	r3, #0
 8000cbc:	6093      	str	r3, [r2, #8]
  SysTick->CTRL  = SysTick_CTRL_CLKSOURCE_Msk |
 8000cbe:	3307      	adds	r3, #7
 8000cc0:	6013      	str	r3, [r2, #0]
                   SysTick_CTRL_TICKINT_Msk   |
                   SysTick_CTRL_ENABLE_Msk;                         /* Enable SysTick IRQ and SysTick Timer */
  return (0UL);                                                     /* Function successful */
 8000cc2:	2000      	movs	r0, #0
  *                  - 1  Function failed.
  */
uint32_t HAL_SYSTICK_Config(uint32_t TicksNumb)
{
  return SysTick_Config(TicksNumb);
}
 8000cc4:	4770      	bx	lr
    return (1UL);                                                   /* Reload value impossible */
 8000cc6:	2001      	movs	r0, #1
  return SysTick_Config(TicksNumb);
 8000cc8:	e7fc      	b.n	8000cc4 <HAL_SYSTICK_Config+0x28>
 8000cca:	46c0      	nop			; (mov r8, r8)
 8000ccc:	e000e010 	.word	0xe000e010
 8000cd0:	e000ed00 	.word	0xe000ed00

08000cd4 <DMA_SetConfig>:
  * @param DstAddress The destination memory Buffer address
  * @param DataLength The length of data to be transferred from source to destination
  * @retval HAL status
  */
static void DMA_SetConfig(DMA_HandleTypeDef *hdma, uint32_t SrcAddress, uint32_t DstAddress, uint32_t DataLength)
{
 8000cd4:	b5f0      	push	{r4, r5, r6, r7, lr}
  /* Clear the DMAMUX synchro overrun flag */
  hdma->DMAmuxChannelStatus->CFR = hdma->DMAmuxChannelStatusMask;
 8000cd6:	6c84      	ldr	r4, [r0, #72]	; 0x48
 8000cd8:	6cc5      	ldr	r5, [r0, #76]	; 0x4c
 8000cda:	6065      	str	r5, [r4, #4]

  if (hdma->DMAmuxRequestGen != 0U)
 8000cdc:	6d04      	ldr	r4, [r0, #80]	; 0x50
 8000cde:	2c00      	cmp	r4, #0
 8000ce0:	d002      	beq.n	8000ce8 <DMA_SetConfig+0x14>
  {
    /* Clear the DMAMUX request generator overrun flag */
    hdma->DMAmuxRequestGenStatus->RGCFR = hdma->DMAmuxRequestGenStatusMask;
 8000ce2:	6d44      	ldr	r4, [r0, #84]	; 0x54
 8000ce4:	6d85      	ldr	r5, [r0, #88]	; 0x58
 8000ce6:	6065      	str	r5, [r4, #4]

  /* Clear all flags */
#if defined(DMA2)
  hdma->DmaBaseAddress->IFCR = (DMA_ISR_GIF1 << (hdma->ChannelIndex & 0x1CU));
#else
  __HAL_DMA_CLEAR_FLAG(hdma, (DMA_FLAG_GI1 << (hdma->ChannelIndex & 0x1CU)));
 8000ce8:	4f0b      	ldr	r7, [pc, #44]	; (8000d18 <DMA_SetConfig+0x44>)
 8000cea:	687c      	ldr	r4, [r7, #4]
 8000cec:	261c      	movs	r6, #28
 8000cee:	6c05      	ldr	r5, [r0, #64]	; 0x40
 8000cf0:	402e      	ands	r6, r5
 8000cf2:	2501      	movs	r5, #1
 8000cf4:	40b5      	lsls	r5, r6
 8000cf6:	432c      	orrs	r4, r5
 8000cf8:	607c      	str	r4, [r7, #4]
#endif /* DMA2 */

  /* Configure DMA Channel data length */
  hdma->Instance->CNDTR = DataLength;
 8000cfa:	6804      	ldr	r4, [r0, #0]
 8000cfc:	6063      	str	r3, [r4, #4]

  /* Memory to Peripheral */
  if ((hdma->Init.Direction) == DMA_MEMORY_TO_PERIPH)
 8000cfe:	6883      	ldr	r3, [r0, #8]
 8000d00:	2b10      	cmp	r3, #16
 8000d02:	d004      	beq.n	8000d0e <DMA_SetConfig+0x3a>
  }
  /* Peripheral to Memory */
  else
  {
    /* Configure DMA Channel source address */
    hdma->Instance->CPAR = SrcAddress;
 8000d04:	6803      	ldr	r3, [r0, #0]
 8000d06:	6099      	str	r1, [r3, #8]

    /* Configure DMA Channel destination address */
    hdma->Instance->CMAR = DstAddress;
 8000d08:	6803      	ldr	r3, [r0, #0]
 8000d0a:	60da      	str	r2, [r3, #12]
  }
}
 8000d0c:	bdf0      	pop	{r4, r5, r6, r7, pc}
    hdma->Instance->CPAR = DstAddress;
 8000d0e:	6803      	ldr	r3, [r0, #0]
 8000d10:	609a      	str	r2, [r3, #8]
    hdma->Instance->CMAR = SrcAddress;
 8000d12:	6803      	ldr	r3, [r0, #0]
 8000d14:	60d9      	str	r1, [r3, #12]
 8000d16:	e7f9      	b.n	8000d0c <DMA_SetConfig+0x38>
 8000d18:	40020000 	.word	0x40020000

08000d1c <DMA_CalcDMAMUXChannelBaseAndMask>:
  * @param hdma Pointer to a DMA_HandleTypeDef structure that contains
  *             the configuration information for the specified DMA Channel.
  * @retval None
  */
static void DMA_CalcDMAMUXChannelBaseAndMask(DMA_HandleTypeDef *hdma)
{
 8000d1c:	b510      	push	{r4, lr}
 8000d1e:	0004      	movs	r4, r0
    /* Prepare channel_number used for DMAmuxChannelStatusMask computation */
    channel_number = (((((uint32_t)hdma->Instance & 0xFFU) - 8U) / 20U) + 7U);
  }
#else
  /* Associate a DMA Channel to a DMAMUX channel */
  hdma->DMAmuxChannel = (DMAMUX_Channel_TypeDef *)(uint32_t)((uint32_t)DMAMUX1_Channel0 + ((hdma->ChannelIndex >> 2U) * ((uint32_t)DMAMUX1_Channel1 - (uint32_t)DMAMUX1_Channel0)));
 8000d20:	6c03      	ldr	r3, [r0, #64]	; 0x40
 8000d22:	089b      	lsrs	r3, r3, #2
 8000d24:	4a09      	ldr	r2, [pc, #36]	; (8000d4c <DMA_CalcDMAMUXChannelBaseAndMask+0x30>)
 8000d26:	4694      	mov	ip, r2
 8000d28:	4463      	add	r3, ip
 8000d2a:	009b      	lsls	r3, r3, #2
 8000d2c:	6443      	str	r3, [r0, #68]	; 0x44

  /* Prepare channel_number used for DMAmuxChannelStatusMask computation */
  channel_number = (((uint32_t)hdma->Instance & 0xFFU) - 8U) / 20U;
 8000d2e:	20ff      	movs	r0, #255	; 0xff
 8000d30:	6823      	ldr	r3, [r4, #0]
 8000d32:	4018      	ands	r0, r3
 8000d34:	3808      	subs	r0, #8
 8000d36:	2114      	movs	r1, #20
 8000d38:	f7ff f9e4 	bl	8000104 <__udivsi3>
#endif /* DMA2 */

  /* Initialize the field DMAmuxChannelStatus to DMAMUX1_ChannelStatus base */
  hdma->DMAmuxChannelStatus = DMAMUX1_ChannelStatus;
 8000d3c:	4b04      	ldr	r3, [pc, #16]	; (8000d50 <DMA_CalcDMAMUXChannelBaseAndMask+0x34>)
 8000d3e:	64a3      	str	r3, [r4, #72]	; 0x48

  /* Initialize the field DMAmuxChannelStatusMask with the corresponding index of the DMAMUX channel selected for the current ChannelIndex */
  hdma->DMAmuxChannelStatusMask = 1UL << (channel_number & 0x1FU);
 8000d40:	231f      	movs	r3, #31
 8000d42:	4018      	ands	r0, r3
 8000d44:	3b1e      	subs	r3, #30
 8000d46:	4083      	lsls	r3, r0
 8000d48:	64e3      	str	r3, [r4, #76]	; 0x4c
}
 8000d4a:	bd10      	pop	{r4, pc}
 8000d4c:	10008200 	.word	0x10008200
 8000d50:	40020880 	.word	0x40020880

08000d54 <DMA_CalcDMAMUXRequestGenBaseAndMask>:
  * @retval None
  */

static void DMA_CalcDMAMUXRequestGenBaseAndMask(DMA_HandleTypeDef *hdma)
{
  uint32_t request =  hdma->Init.Request & DMAMUX_CxCR_DMAREQ_ID;
 8000d54:	233f      	movs	r3, #63	; 0x3f
 8000d56:	6842      	ldr	r2, [r0, #4]
 8000d58:	4013      	ands	r3, r2

  /* DMA Channels are connected to DMAMUX1 request generator blocks*/
  hdma->DMAmuxRequestGen = (DMAMUX_RequestGen_TypeDef *)((uint32_t)(((uint32_t)DMAMUX1_RequestGenerator0) + ((request - 1U) * 4U)));
 8000d5a:	4a06      	ldr	r2, [pc, #24]	; (8000d74 <DMA_CalcDMAMUXRequestGenBaseAndMask+0x20>)
 8000d5c:	189a      	adds	r2, r3, r2
 8000d5e:	0092      	lsls	r2, r2, #2
 8000d60:	6502      	str	r2, [r0, #80]	; 0x50

  hdma->DMAmuxRequestGenStatus = DMAMUX1_RequestGenStatus;
 8000d62:	4a05      	ldr	r2, [pc, #20]	; (8000d78 <DMA_CalcDMAMUXRequestGenBaseAndMask+0x24>)
 8000d64:	6542      	str	r2, [r0, #84]	; 0x54

  /* here "Request" is either DMA_REQUEST_GENERATOR0 to DMA_REQUEST_GENERATOR3, i.e. <= 4*/
  hdma->DMAmuxRequestGenStatusMask = 1UL << ((request - 1U) & 0x3U);
 8000d66:	3b01      	subs	r3, #1
 8000d68:	2203      	movs	r2, #3
 8000d6a:	401a      	ands	r2, r3
 8000d6c:	2301      	movs	r3, #1
 8000d6e:	4093      	lsls	r3, r2
 8000d70:	6583      	str	r3, [r0, #88]	; 0x58
}
 8000d72:	4770      	bx	lr
 8000d74:	1000823f 	.word	0x1000823f
 8000d78:	40020940 	.word	0x40020940

08000d7c <HAL_DMA_Init>:
{
 8000d7c:	b570      	push	{r4, r5, r6, lr}
 8000d7e:	1e04      	subs	r4, r0, #0
  if (hdma == NULL)
 8000d80:	d04d      	beq.n	8000e1e <HAL_DMA_Init+0xa2>
  hdma->ChannelIndex = (((uint32_t)hdma->Instance - (uint32_t)DMA1_Channel1) / ((uint32_t)DMA1_Channel2 - (uint32_t)DMA1_Channel1)) << 2U;
 8000d82:	6805      	ldr	r5, [r0, #0]
 8000d84:	4b27      	ldr	r3, [pc, #156]	; (8000e24 <HAL_DMA_Init+0xa8>)
 8000d86:	18e8      	adds	r0, r5, r3
 8000d88:	2114      	movs	r1, #20
 8000d8a:	f7ff f9bb 	bl	8000104 <__udivsi3>
 8000d8e:	0080      	lsls	r0, r0, #2
 8000d90:	6420      	str	r0, [r4, #64]	; 0x40
  hdma->State = HAL_DMA_STATE_BUSY;
 8000d92:	2325      	movs	r3, #37	; 0x25
 8000d94:	2202      	movs	r2, #2
 8000d96:	54e2      	strb	r2, [r4, r3]
  CLEAR_BIT(hdma->Instance->CCR, (DMA_CCR_PL    | DMA_CCR_MSIZE  | DMA_CCR_PSIZE  | \
 8000d98:	682b      	ldr	r3, [r5, #0]
 8000d9a:	4a23      	ldr	r2, [pc, #140]	; (8000e28 <HAL_DMA_Init+0xac>)
 8000d9c:	4013      	ands	r3, r2
 8000d9e:	602b      	str	r3, [r5, #0]
  SET_BIT(hdma->Instance->CCR, (hdma->Init.Direction           |                               \
 8000da0:	6821      	ldr	r1, [r4, #0]
 8000da2:	680a      	ldr	r2, [r1, #0]
 8000da4:	68a3      	ldr	r3, [r4, #8]
 8000da6:	68e0      	ldr	r0, [r4, #12]
 8000da8:	4303      	orrs	r3, r0
 8000daa:	6920      	ldr	r0, [r4, #16]
 8000dac:	4303      	orrs	r3, r0
 8000dae:	6960      	ldr	r0, [r4, #20]
 8000db0:	4303      	orrs	r3, r0
 8000db2:	69a0      	ldr	r0, [r4, #24]
 8000db4:	4303      	orrs	r3, r0
 8000db6:	69e0      	ldr	r0, [r4, #28]
 8000db8:	4303      	orrs	r3, r0
 8000dba:	6a20      	ldr	r0, [r4, #32]
 8000dbc:	4303      	orrs	r3, r0
 8000dbe:	4313      	orrs	r3, r2
 8000dc0:	600b      	str	r3, [r1, #0]
  DMA_CalcDMAMUXChannelBaseAndMask(hdma);
 8000dc2:	0020      	movs	r0, r4
 8000dc4:	f7ff ffaa 	bl	8000d1c <DMA_CalcDMAMUXChannelBaseAndMask>
  if (hdma->Init.Direction == DMA_MEMORY_TO_MEMORY)
 8000dc8:	2380      	movs	r3, #128	; 0x80
 8000dca:	01db      	lsls	r3, r3, #7
 8000dcc:	68a2      	ldr	r2, [r4, #8]
 8000dce:	429a      	cmp	r2, r3
 8000dd0:	d018      	beq.n	8000e04 <HAL_DMA_Init+0x88>
  hdma->DMAmuxChannel->CCR = (hdma->Init.Request & DMAMUX_CxCR_DMAREQ_ID);
 8000dd2:	6c62      	ldr	r2, [r4, #68]	; 0x44
 8000dd4:	233f      	movs	r3, #63	; 0x3f
 8000dd6:	6861      	ldr	r1, [r4, #4]
 8000dd8:	400b      	ands	r3, r1
 8000dda:	6013      	str	r3, [r2, #0]
  hdma->DMAmuxChannelStatus->CFR = hdma->DMAmuxChannelStatusMask;
 8000ddc:	6ca3      	ldr	r3, [r4, #72]	; 0x48
 8000dde:	6ce2      	ldr	r2, [r4, #76]	; 0x4c
 8000de0:	605a      	str	r2, [r3, #4]
  if (((hdma->Init.Request >  0UL) && (hdma->Init.Request <= DMA_REQUEST_GENERATOR3)))
 8000de2:	6863      	ldr	r3, [r4, #4]
 8000de4:	3b01      	subs	r3, #1
 8000de6:	2b03      	cmp	r3, #3
 8000de8:	d90f      	bls.n	8000e0a <HAL_DMA_Init+0x8e>
    hdma->DMAmuxRequestGen = 0U;
 8000dea:	2300      	movs	r3, #0
 8000dec:	6523      	str	r3, [r4, #80]	; 0x50
    hdma->DMAmuxRequestGenStatus = 0U;
 8000dee:	6563      	str	r3, [r4, #84]	; 0x54
    hdma->DMAmuxRequestGenStatusMask = 0U;
 8000df0:	65a3      	str	r3, [r4, #88]	; 0x58
  hdma->ErrorCode = HAL_DMA_ERROR_NONE;
 8000df2:	2300      	movs	r3, #0
 8000df4:	63e3      	str	r3, [r4, #60]	; 0x3c
  hdma->State = HAL_DMA_STATE_READY;
 8000df6:	2225      	movs	r2, #37	; 0x25
 8000df8:	2101      	movs	r1, #1
 8000dfa:	54a1      	strb	r1, [r4, r2]
  __HAL_UNLOCK(hdma);
 8000dfc:	3a01      	subs	r2, #1
 8000dfe:	54a3      	strb	r3, [r4, r2]
  return HAL_OK;
 8000e00:	2000      	movs	r0, #0
}
 8000e02:	bd70      	pop	{r4, r5, r6, pc}
    hdma->Init.Request = DMA_REQUEST_MEM2MEM;
 8000e04:	2300      	movs	r3, #0
 8000e06:	6063      	str	r3, [r4, #4]
 8000e08:	e7e3      	b.n	8000dd2 <HAL_DMA_Init+0x56>
    DMA_CalcDMAMUXRequestGenBaseAndMask(hdma);
 8000e0a:	0020      	movs	r0, r4
 8000e0c:	f7ff ffa2 	bl	8000d54 <DMA_CalcDMAMUXRequestGenBaseAndMask>
    hdma->DMAmuxRequestGen->RGCR = 0U;
 8000e10:	6d23      	ldr	r3, [r4, #80]	; 0x50
 8000e12:	2200      	movs	r2, #0
 8000e14:	601a      	str	r2, [r3, #0]
    hdma->DMAmuxRequestGenStatus->RGCFR = hdma->DMAmuxRequestGenStatusMask;
 8000e16:	6d63      	ldr	r3, [r4, #84]	; 0x54
 8000e18:	6da2      	ldr	r2, [r4, #88]	; 0x58
 8000e1a:	605a      	str	r2, [r3, #4]
 8000e1c:	e7e9      	b.n	8000df2 <HAL_DMA_Init+0x76>
    return HAL_ERROR;
 8000e1e:	2001      	movs	r0, #1
 8000e20:	e7ef      	b.n	8000e02 <HAL_DMA_Init+0x86>
 8000e22:	46c0      	nop			; (mov r8, r8)
 8000e24:	bffdfff8 	.word	0xbffdfff8
 8000e28:	ffff800f 	.word	0xffff800f

08000e2c <HAL_DMA_Start_IT>:
{
 8000e2c:	b570      	push	{r4, r5, r6, lr}
 8000e2e:	0004      	movs	r4, r0
  __HAL_LOCK(hdma);
 8000e30:	2024      	movs	r0, #36	; 0x24
 8000e32:	5c20      	ldrb	r0, [r4, r0]
 8000e34:	2801      	cmp	r0, #1
 8000e36:	d045      	beq.n	8000ec4 <HAL_DMA_Start_IT+0x98>
 8000e38:	2024      	movs	r0, #36	; 0x24
 8000e3a:	2501      	movs	r5, #1
 8000e3c:	5425      	strb	r5, [r4, r0]
  if (hdma->State == HAL_DMA_STATE_READY)
 8000e3e:	3001      	adds	r0, #1
 8000e40:	5c20      	ldrb	r0, [r4, r0]
 8000e42:	2801      	cmp	r0, #1
 8000e44:	d006      	beq.n	8000e54 <HAL_DMA_Start_IT+0x28>
    hdma->ErrorCode = HAL_DMA_ERROR_BUSY;
 8000e46:	2380      	movs	r3, #128	; 0x80
 8000e48:	63e3      	str	r3, [r4, #60]	; 0x3c
    __HAL_UNLOCK(hdma);
 8000e4a:	3b5c      	subs	r3, #92	; 0x5c
 8000e4c:	2200      	movs	r2, #0
 8000e4e:	54e2      	strb	r2, [r4, r3]
    status = HAL_ERROR;
 8000e50:	2001      	movs	r0, #1
}
 8000e52:	bd70      	pop	{r4, r5, r6, pc}
    hdma->State = HAL_DMA_STATE_BUSY;
 8000e54:	3024      	adds	r0, #36	; 0x24
 8000e56:	3501      	adds	r5, #1
 8000e58:	5425      	strb	r5, [r4, r0]
    hdma->ErrorCode = HAL_DMA_ERROR_NONE;
 8000e5a:	2000      	movs	r0, #0
 8000e5c:	63e0      	str	r0, [r4, #60]	; 0x3c
    __HAL_DMA_DISABLE(hdma);
 8000e5e:	6825      	ldr	r5, [r4, #0]
 8000e60:	6828      	ldr	r0, [r5, #0]
 8000e62:	2601      	movs	r6, #1
 8000e64:	43b0      	bics	r0, r6
 8000e66:	6028      	str	r0, [r5, #0]
    DMA_SetConfig(hdma, SrcAddress, DstAddress, DataLength);
 8000e68:	0020      	movs	r0, r4
 8000e6a:	f7ff ff33 	bl	8000cd4 <DMA_SetConfig>
    if (NULL != hdma->XferHalfCpltCallback)
 8000e6e:	6b23      	ldr	r3, [r4, #48]	; 0x30
 8000e70:	2b00      	cmp	r3, #0
 8000e72:	d01c      	beq.n	8000eae <HAL_DMA_Start_IT+0x82>
      __HAL_DMA_ENABLE_IT(hdma, (DMA_IT_TC | DMA_IT_HT | DMA_IT_TE));
 8000e74:	6822      	ldr	r2, [r4, #0]
 8000e76:	6813      	ldr	r3, [r2, #0]
 8000e78:	210e      	movs	r1, #14
 8000e7a:	430b      	orrs	r3, r1
 8000e7c:	6013      	str	r3, [r2, #0]
    if ((hdma->DMAmuxChannel->CCR & DMAMUX_CxCR_SE) != 0U)
 8000e7e:	6c63      	ldr	r3, [r4, #68]	; 0x44
 8000e80:	681a      	ldr	r2, [r3, #0]
 8000e82:	03d2      	lsls	r2, r2, #15
 8000e84:	d504      	bpl.n	8000e90 <HAL_DMA_Start_IT+0x64>
      hdma->DMAmuxChannel->CCR |= DMAMUX_CxCR_SOIE;
 8000e86:	6819      	ldr	r1, [r3, #0]
 8000e88:	2280      	movs	r2, #128	; 0x80
 8000e8a:	0052      	lsls	r2, r2, #1
 8000e8c:	430a      	orrs	r2, r1
 8000e8e:	601a      	str	r2, [r3, #0]
    if (hdma->DMAmuxRequestGen != 0U)
 8000e90:	6d23      	ldr	r3, [r4, #80]	; 0x50
 8000e92:	2b00      	cmp	r3, #0
 8000e94:	d004      	beq.n	8000ea0 <HAL_DMA_Start_IT+0x74>
      hdma->DMAmuxRequestGen->RGCR |= DMAMUX_RGxCR_OIE;
 8000e96:	6819      	ldr	r1, [r3, #0]
 8000e98:	2280      	movs	r2, #128	; 0x80
 8000e9a:	0052      	lsls	r2, r2, #1
 8000e9c:	430a      	orrs	r2, r1
 8000e9e:	601a      	str	r2, [r3, #0]
    __HAL_DMA_ENABLE(hdma);
 8000ea0:	6822      	ldr	r2, [r4, #0]
 8000ea2:	6813      	ldr	r3, [r2, #0]
 8000ea4:	2101      	movs	r1, #1
 8000ea6:	430b      	orrs	r3, r1
 8000ea8:	6013      	str	r3, [r2, #0]
  HAL_StatusTypeDef status = HAL_OK;
 8000eaa:	2000      	movs	r0, #0
 8000eac:	e7d1      	b.n	8000e52 <HAL_DMA_Start_IT+0x26>
      __HAL_DMA_DISABLE_IT(hdma, DMA_IT_HT);
 8000eae:	6822      	ldr	r2, [r4, #0]
 8000eb0:	6813      	ldr	r3, [r2, #0]
 8000eb2:	2104      	movs	r1, #4
 8000eb4:	438b      	bics	r3, r1
 8000eb6:	6013      	str	r3, [r2, #0]
      __HAL_DMA_ENABLE_IT(hdma, (DMA_IT_TC | DMA_IT_TE));
 8000eb8:	6822      	ldr	r2, [r4, #0]
 8000eba:	6813      	ldr	r3, [r2, #0]
 8000ebc:	3106      	adds	r1, #6
 8000ebe:	430b      	orrs	r3, r1
 8000ec0:	6013      	str	r3, [r2, #0]
 8000ec2:	e7dc      	b.n	8000e7e <HAL_DMA_Start_IT+0x52>
  __HAL_LOCK(hdma);
 8000ec4:	2002      	movs	r0, #2
 8000ec6:	e7c4      	b.n	8000e52 <HAL_DMA_Start_IT+0x26>

08000ec8 <HAL_DMA_Abort_IT>:
{
 8000ec8:	b570      	push	{r4, r5, r6, lr}
  if (hdma->State != HAL_DMA_STATE_BUSY)
 8000eca:	2325      	movs	r3, #37	; 0x25
 8000ecc:	5cc3      	ldrb	r3, [r0, r3]
 8000ece:	2b02      	cmp	r3, #2
 8000ed0:	d003      	beq.n	8000eda <HAL_DMA_Abort_IT+0x12>
    hdma->ErrorCode = HAL_DMA_ERROR_NO_XFER;
 8000ed2:	2304      	movs	r3, #4
 8000ed4:	63c3      	str	r3, [r0, #60]	; 0x3c
    status = HAL_ERROR;
 8000ed6:	2001      	movs	r0, #1
}
 8000ed8:	bd70      	pop	{r4, r5, r6, pc}
    __HAL_DMA_DISABLE_IT(hdma, (DMA_IT_TC | DMA_IT_HT | DMA_IT_TE));
 8000eda:	6802      	ldr	r2, [r0, #0]
 8000edc:	6813      	ldr	r3, [r2, #0]
 8000ede:	210e      	movs	r1, #14
 8000ee0:	438b      	bics	r3, r1
 8000ee2:	6013      	str	r3, [r2, #0]
    __HAL_DMA_DISABLE(hdma);
 8000ee4:	6801      	ldr	r1, [r0, #0]
 8000ee6:	680a      	ldr	r2, [r1, #0]
 8000ee8:	2301      	movs	r3, #1
 8000eea:	439a      	bics	r2, r3
 8000eec:	600a      	str	r2, [r1, #0]
    hdma->DMAmuxChannel->CCR &= ~DMAMUX_CxCR_SOIE;
 8000eee:	6c41      	ldr	r1, [r0, #68]	; 0x44
 8000ef0:	680a      	ldr	r2, [r1, #0]
 8000ef2:	4c13      	ldr	r4, [pc, #76]	; (8000f40 <HAL_DMA_Abort_IT+0x78>)
 8000ef4:	4022      	ands	r2, r4
 8000ef6:	600a      	str	r2, [r1, #0]
    __HAL_DMA_CLEAR_FLAG(hdma, ((DMA_FLAG_GI1) << (hdma->ChannelIndex & 0x1CU)));
 8000ef8:	4c12      	ldr	r4, [pc, #72]	; (8000f44 <HAL_DMA_Abort_IT+0x7c>)
 8000efa:	6862      	ldr	r2, [r4, #4]
 8000efc:	211c      	movs	r1, #28
 8000efe:	6c05      	ldr	r5, [r0, #64]	; 0x40
 8000f00:	4029      	ands	r1, r5
 8000f02:	408b      	lsls	r3, r1
 8000f04:	4313      	orrs	r3, r2
 8000f06:	6063      	str	r3, [r4, #4]
    hdma->DMAmuxChannelStatus->CFR = hdma->DMAmuxChannelStatusMask;
 8000f08:	6c83      	ldr	r3, [r0, #72]	; 0x48
 8000f0a:	6cc2      	ldr	r2, [r0, #76]	; 0x4c
 8000f0c:	605a      	str	r2, [r3, #4]
    if (hdma->DMAmuxRequestGen != 0U)
 8000f0e:	6d03      	ldr	r3, [r0, #80]	; 0x50
 8000f10:	2b00      	cmp	r3, #0
 8000f12:	d006      	beq.n	8000f22 <HAL_DMA_Abort_IT+0x5a>
      hdma->DMAmuxRequestGen->RGCR &= ~DMAMUX_RGxCR_OIE;
 8000f14:	681a      	ldr	r2, [r3, #0]
 8000f16:	490a      	ldr	r1, [pc, #40]	; (8000f40 <HAL_DMA_Abort_IT+0x78>)
 8000f18:	400a      	ands	r2, r1
 8000f1a:	601a      	str	r2, [r3, #0]
      hdma->DMAmuxRequestGenStatus->RGCFR = hdma->DMAmuxRequestGenStatusMask;
 8000f1c:	6d43      	ldr	r3, [r0, #84]	; 0x54
 8000f1e:	6d82      	ldr	r2, [r0, #88]	; 0x58
 8000f20:	605a      	str	r2, [r3, #4]
    hdma->State = HAL_DMA_STATE_READY;
 8000f22:	2325      	movs	r3, #37	; 0x25
 8000f24:	2201      	movs	r2, #1
 8000f26:	54c2      	strb	r2, [r0, r3]
    __HAL_UNLOCK(hdma);
 8000f28:	3b01      	subs	r3, #1
 8000f2a:	2200      	movs	r2, #0
 8000f2c:	54c2      	strb	r2, [r0, r3]
    if (hdma->XferAbortCallback != NULL)
 8000f2e:	6b83      	ldr	r3, [r0, #56]	; 0x38
 8000f30:	2b00      	cmp	r3, #0
 8000f32:	d002      	beq.n	8000f3a <HAL_DMA_Abort_IT+0x72>
      hdma->XferAbortCallback(hdma);
 8000f34:	4798      	blx	r3
  HAL_StatusTypeDef status = HAL_OK;
 8000f36:	2000      	movs	r0, #0
 8000f38:	e7ce      	b.n	8000ed8 <HAL_DMA_Abort_IT+0x10>
 8000f3a:	2000      	movs	r0, #0
 8000f3c:	e7cc      	b.n	8000ed8 <HAL_DMA_Abort_IT+0x10>
 8000f3e:	46c0      	nop			; (mov r8, r8)
 8000f40:	fffffeff 	.word	0xfffffeff
 8000f44:	40020000 	.word	0x40020000

08000f48 <HAL_DMA_IRQHandler>:
{
 8000f48:	b570      	push	{r4, r5, r6, lr}
  uint32_t flag_it = DMA1->ISR;
 8000f4a:	4b31      	ldr	r3, [pc, #196]	; (8001010 <HAL_DMA_IRQHandler+0xc8>)
 8000f4c:	6819      	ldr	r1, [r3, #0]
  uint32_t source_it = hdma->Instance->CCR;
 8000f4e:	6804      	ldr	r4, [r0, #0]
 8000f50:	6825      	ldr	r5, [r4, #0]
  if (((flag_it & (DMA_FLAG_HT1 << (hdma->ChannelIndex & 0x1CU))) != 0U) && ((source_it & DMA_IT_HT) != 0U))
 8000f52:	231c      	movs	r3, #28
 8000f54:	6c02      	ldr	r2, [r0, #64]	; 0x40
 8000f56:	4013      	ands	r3, r2
 8000f58:	2204      	movs	r2, #4
 8000f5a:	409a      	lsls	r2, r3
 8000f5c:	4211      	tst	r1, r2
 8000f5e:	d016      	beq.n	8000f8e <HAL_DMA_IRQHandler+0x46>
 8000f60:	076a      	lsls	r2, r5, #29
 8000f62:	d514      	bpl.n	8000f8e <HAL_DMA_IRQHandler+0x46>
      if ((hdma->Instance->CCR & DMA_CCR_CIRC) == 0U)
 8000f64:	6823      	ldr	r3, [r4, #0]
 8000f66:	069b      	lsls	r3, r3, #26
 8000f68:	d403      	bmi.n	8000f72 <HAL_DMA_IRQHandler+0x2a>
        __HAL_DMA_DISABLE_IT(hdma, DMA_IT_HT);
 8000f6a:	6823      	ldr	r3, [r4, #0]
 8000f6c:	2204      	movs	r2, #4
 8000f6e:	4393      	bics	r3, r2
 8000f70:	6023      	str	r3, [r4, #0]
      __HAL_DMA_CLEAR_FLAG(hdma, (DMA_FLAG_HT1 << (hdma->ChannelIndex & 0x1CU)));
 8000f72:	4c27      	ldr	r4, [pc, #156]	; (8001010 <HAL_DMA_IRQHandler+0xc8>)
 8000f74:	6863      	ldr	r3, [r4, #4]
 8000f76:	211c      	movs	r1, #28
 8000f78:	6c02      	ldr	r2, [r0, #64]	; 0x40
 8000f7a:	4011      	ands	r1, r2
 8000f7c:	2204      	movs	r2, #4
 8000f7e:	408a      	lsls	r2, r1
 8000f80:	4313      	orrs	r3, r2
 8000f82:	6063      	str	r3, [r4, #4]
      if (hdma->XferHalfCpltCallback != NULL)
 8000f84:	6b03      	ldr	r3, [r0, #48]	; 0x30
 8000f86:	2b00      	cmp	r3, #0
 8000f88:	d000      	beq.n	8000f8c <HAL_DMA_IRQHandler+0x44>
        hdma->XferHalfCpltCallback(hdma);
 8000f8a:	4798      	blx	r3
}
 8000f8c:	bd70      	pop	{r4, r5, r6, pc}
  else if ((0U != (flag_it & (DMA_FLAG_TC1 << (hdma->ChannelIndex & 0x1CU)))) && (0U != (source_it & DMA_IT_TC)))
 8000f8e:	2202      	movs	r2, #2
 8000f90:	409a      	lsls	r2, r3
 8000f92:	4211      	tst	r1, r2
 8000f94:	d01c      	beq.n	8000fd0 <HAL_DMA_IRQHandler+0x88>
 8000f96:	07aa      	lsls	r2, r5, #30
 8000f98:	d51a      	bpl.n	8000fd0 <HAL_DMA_IRQHandler+0x88>
      if ((hdma->Instance->CCR & DMA_CCR_CIRC) == 0U)
 8000f9a:	6823      	ldr	r3, [r4, #0]
 8000f9c:	069b      	lsls	r3, r3, #26
 8000f9e:	d406      	bmi.n	8000fae <HAL_DMA_IRQHandler+0x66>
        __HAL_DMA_DISABLE_IT(hdma, DMA_IT_TE | DMA_IT_TC);
 8000fa0:	6823      	ldr	r3, [r4, #0]
 8000fa2:	220a      	movs	r2, #10
 8000fa4:	4393      	bics	r3, r2
 8000fa6:	6023      	str	r3, [r4, #0]
        hdma->State = HAL_DMA_STATE_READY;
 8000fa8:	2325      	movs	r3, #37	; 0x25
 8000faa:	3a09      	subs	r2, #9
 8000fac:	54c2      	strb	r2, [r0, r3]
      __HAL_DMA_CLEAR_FLAG(hdma, (DMA_FLAG_TC1 << (hdma->ChannelIndex & 0x1CU)));
 8000fae:	4c18      	ldr	r4, [pc, #96]	; (8001010 <HAL_DMA_IRQHandler+0xc8>)
 8000fb0:	6863      	ldr	r3, [r4, #4]
 8000fb2:	211c      	movs	r1, #28
 8000fb4:	6c02      	ldr	r2, [r0, #64]	; 0x40
 8000fb6:	4011      	ands	r1, r2
 8000fb8:	2202      	movs	r2, #2
 8000fba:	408a      	lsls	r2, r1
 8000fbc:	4313      	orrs	r3, r2
 8000fbe:	6063      	str	r3, [r4, #4]
      __HAL_UNLOCK(hdma);
 8000fc0:	2324      	movs	r3, #36	; 0x24
 8000fc2:	2200      	movs	r2, #0
 8000fc4:	54c2      	strb	r2, [r0, r3]
      if (hdma->XferCpltCallback != NULL)
 8000fc6:	6ac3      	ldr	r3, [r0, #44]	; 0x2c
 8000fc8:	2b00      	cmp	r3, #0
 8000fca:	d0df      	beq.n	8000f8c <HAL_DMA_IRQHandler+0x44>
        hdma->XferCpltCallback(hdma);
 8000fcc:	4798      	blx	r3
 8000fce:	e7dd      	b.n	8000f8c <HAL_DMA_IRQHandler+0x44>
  else if (((flag_it & (DMA_FLAG_TE1 << (hdma->ChannelIndex & 0x1CU))) != 0U) && ((source_it & DMA_IT_TE) != 0U))
 8000fd0:	2208      	movs	r2, #8
 8000fd2:	409a      	lsls	r2, r3
 8000fd4:	4211      	tst	r1, r2
 8000fd6:	d0d9      	beq.n	8000f8c <HAL_DMA_IRQHandler+0x44>
 8000fd8:	072b      	lsls	r3, r5, #28
 8000fda:	d5d7      	bpl.n	8000f8c <HAL_DMA_IRQHandler+0x44>
    __HAL_DMA_DISABLE_IT(hdma, (DMA_IT_TC | DMA_IT_HT | DMA_IT_TE));
 8000fdc:	6823      	ldr	r3, [r4, #0]
 8000fde:	220e      	movs	r2, #14
 8000fe0:	4393      	bics	r3, r2
 8000fe2:	6023      	str	r3, [r4, #0]
    __HAL_DMA_CLEAR_FLAG(hdma, (DMA_FLAG_GI1 << (hdma->ChannelIndex & 0x1CU)));
 8000fe4:	4c0a      	ldr	r4, [pc, #40]	; (8001010 <HAL_DMA_IRQHandler+0xc8>)
 8000fe6:	6862      	ldr	r2, [r4, #4]
 8000fe8:	211c      	movs	r1, #28
 8000fea:	6c03      	ldr	r3, [r0, #64]	; 0x40
 8000fec:	4019      	ands	r1, r3
 8000fee:	2301      	movs	r3, #1
 8000ff0:	001d      	movs	r5, r3
 8000ff2:	408d      	lsls	r5, r1
 8000ff4:	432a      	orrs	r2, r5
 8000ff6:	6062      	str	r2, [r4, #4]
    hdma->ErrorCode = HAL_DMA_ERROR_TE;
 8000ff8:	63c3      	str	r3, [r0, #60]	; 0x3c
    hdma->State = HAL_DMA_STATE_READY;
 8000ffa:	2225      	movs	r2, #37	; 0x25
 8000ffc:	5483      	strb	r3, [r0, r2]
    __HAL_UNLOCK(hdma);
 8000ffe:	3323      	adds	r3, #35	; 0x23
 8001000:	2200      	movs	r2, #0
 8001002:	54c2      	strb	r2, [r0, r3]
    if (hdma->XferErrorCallback != NULL)
 8001004:	6b43      	ldr	r3, [r0, #52]	; 0x34
 8001006:	2b00      	cmp	r3, #0
 8001008:	d0c0      	beq.n	8000f8c <HAL_DMA_IRQHandler+0x44>
      hdma->XferErrorCallback(hdma);
 800100a:	4798      	blx	r3
  return;
 800100c:	e7be      	b.n	8000f8c <HAL_DMA_IRQHandler+0x44>
 800100e:	46c0      	nop			; (mov r8, r8)
 8001010:	40020000 	.word	0x40020000

08001014 <HAL_GPIO_Init>:
  * @param  GPIO_Init pointer to a GPIO_InitTypeDef structure that contains
  *         the configuration information for the specified GPIO peripheral.
  * @retval None
  */
void HAL_GPIO_Init(GPIO_TypeDef  *GPIOx, GPIO_InitTypeDef *GPIO_Init)
{
 8001014:	b5f0      	push	{r4, r5, r6, r7, lr}
  uint32_t position = 0x00u;
 8001016:	2300      	movs	r3, #0
  assert_param(IS_GPIO_ALL_INSTANCE(GPIOx));
  assert_param(IS_GPIO_PIN(GPIO_Init->Pin));
  assert_param(IS_GPIO_MODE(GPIO_Init->Mode));

  /* Configure the port pins */
  while (((GPIO_Init->Pin) >> position) != 0x00u)
 8001018:	e05a      	b.n	80010d0 <HAL_GPIO_Init+0xbc>
      {
        /* Check the Speed parameter */
        assert_param(IS_GPIO_SPEED(GPIO_Init->Speed));

        /* Configure the IO Speed */
        temp = GPIOx->OSPEEDR;
 800101a:	6884      	ldr	r4, [r0, #8]
        temp &= ~(GPIO_OSPEEDR_OSPEED0 << (position * 2u));
 800101c:	005f      	lsls	r7, r3, #1
 800101e:	2603      	movs	r6, #3
 8001020:	40be      	lsls	r6, r7
 8001022:	43b4      	bics	r4, r6
 8001024:	0026      	movs	r6, r4
        temp |= (GPIO_Init->Speed << (position * 2u));
 8001026:	68cc      	ldr	r4, [r1, #12]
 8001028:	40bc      	lsls	r4, r7
 800102a:	4334      	orrs	r4, r6
        GPIOx->OSPEEDR = temp;
 800102c:	6084      	str	r4, [r0, #8]

        /* Configure the IO Output Type */
        temp = GPIOx->OTYPER;
 800102e:	6844      	ldr	r4, [r0, #4]
        temp &= ~(GPIO_OTYPER_OT0 << position) ;
 8001030:	4394      	bics	r4, r2
        temp |= (((GPIO_Init->Mode & OUTPUT_TYPE) >> OUTPUT_TYPE_Pos) << position);
 8001032:	684a      	ldr	r2, [r1, #4]
 8001034:	0916      	lsrs	r6, r2, #4
 8001036:	2201      	movs	r2, #1
 8001038:	4032      	ands	r2, r6
 800103a:	409a      	lsls	r2, r3
 800103c:	4322      	orrs	r2, r4
        GPIOx->OTYPER = temp;
 800103e:	6042      	str	r2, [r0, #4]
 8001040:	e056      	b.n	80010f0 <HAL_GPIO_Init+0xdc>
        /* Check the Alternate function parameters */
        assert_param(IS_GPIO_AF_INSTANCE(GPIOx));
        assert_param(IS_GPIO_AF(GPIO_Init->Alternate));

        /* Configure Alternate function mapped with the current IO */
        temp = GPIOx->AFR[position >> 3u];
 8001042:	08dc      	lsrs	r4, r3, #3
 8001044:	3408      	adds	r4, #8
 8001046:	00a4      	lsls	r4, r4, #2
 8001048:	5826      	ldr	r6, [r4, r0]
        temp &= ~(0xFu << ((position & 0x07u) * 4u));
 800104a:	3205      	adds	r2, #5
 800104c:	401a      	ands	r2, r3
 800104e:	0092      	lsls	r2, r2, #2
 8001050:	270f      	movs	r7, #15
 8001052:	4097      	lsls	r7, r2
 8001054:	43be      	bics	r6, r7
        temp |= ((GPIO_Init->Alternate) << ((position & 0x07u) * 4u));
 8001056:	690f      	ldr	r7, [r1, #16]
 8001058:	4097      	lsls	r7, r2
 800105a:	003a      	movs	r2, r7
 800105c:	4332      	orrs	r2, r6
        GPIOx->AFR[position >> 3u] = temp;
 800105e:	5022      	str	r2, [r4, r0]
 8001060:	e05a      	b.n	8001118 <HAL_GPIO_Init+0x104>
      /* Configure the External Interrupt or event for the current IO */
      if ((GPIO_Init->Mode & EXTI_MODE) != 0x00u)
      {
        temp = EXTI->EXTICR[position >> 2u];
        temp &= ~(0x0FuL << (8u * (position & 0x03u)));
        temp |= (GPIO_GET_INDEX(GPIOx) << (8u * (position & 0x03u)));
 8001062:	2603      	movs	r6, #3
 8001064:	e000      	b.n	8001068 <HAL_GPIO_Init+0x54>
 8001066:	2600      	movs	r6, #0
 8001068:	40a6      	lsls	r6, r4
 800106a:	0034      	movs	r4, r6
 800106c:	433c      	orrs	r4, r7
        EXTI->EXTICR[position >> 2u] = temp;
 800106e:	4e43      	ldr	r6, [pc, #268]	; (800117c <HAL_GPIO_Init+0x168>)
 8001070:	3218      	adds	r2, #24
 8001072:	0092      	lsls	r2, r2, #2
 8001074:	5194      	str	r4, [r2, r6]

        /* Clear Rising Falling edge configuration */
        temp = EXTI->RTSR1;
 8001076:	6834      	ldr	r4, [r6, #0]
        temp &= ~(iocurrent);
 8001078:	43ea      	mvns	r2, r5
 800107a:	0026      	movs	r6, r4
 800107c:	43ae      	bics	r6, r5
        if ((GPIO_Init->Mode & TRIGGER_RISING) != 0x00u)
 800107e:	684f      	ldr	r7, [r1, #4]
 8001080:	02ff      	lsls	r7, r7, #11
 8001082:	d501      	bpl.n	8001088 <HAL_GPIO_Init+0x74>
        {
          temp |= iocurrent;
 8001084:	432c      	orrs	r4, r5
 8001086:	0026      	movs	r6, r4
        }
        EXTI->RTSR1 = temp;
 8001088:	4c3c      	ldr	r4, [pc, #240]	; (800117c <HAL_GPIO_Init+0x168>)
 800108a:	6026      	str	r6, [r4, #0]

        temp = EXTI->FTSR1;
 800108c:	6864      	ldr	r4, [r4, #4]
        temp &= ~(iocurrent);
 800108e:	0026      	movs	r6, r4
 8001090:	4016      	ands	r6, r2
        if ((GPIO_Init->Mode & TRIGGER_FALLING) != 0x00u)
 8001092:	684f      	ldr	r7, [r1, #4]
 8001094:	02bf      	lsls	r7, r7, #10
 8001096:	d501      	bpl.n	800109c <HAL_GPIO_Init+0x88>
        {
          temp |= iocurrent;
 8001098:	432c      	orrs	r4, r5
 800109a:	0026      	movs	r6, r4
        }
        EXTI->FTSR1 = temp;
 800109c:	4c37      	ldr	r4, [pc, #220]	; (800117c <HAL_GPIO_Init+0x168>)
 800109e:	6066      	str	r6, [r4, #4]

        /* Clear EXTI line configuration */
        temp = EXTI->EMR1;
 80010a0:	2684      	movs	r6, #132	; 0x84
 80010a2:	59a4      	ldr	r4, [r4, r6]
        temp &= ~(iocurrent);
 80010a4:	0026      	movs	r6, r4
 80010a6:	4016      	ands	r6, r2
        if ((GPIO_Init->Mode & EXTI_EVT) != 0x00u)
 80010a8:	684f      	ldr	r7, [r1, #4]
 80010aa:	03bf      	lsls	r7, r7, #14
 80010ac:	d501      	bpl.n	80010b2 <HAL_GPIO_Init+0x9e>
        {
          temp |= iocurrent;
 80010ae:	432c      	orrs	r4, r5
 80010b0:	0026      	movs	r6, r4
        }
        EXTI->EMR1 = temp;
 80010b2:	4c32      	ldr	r4, [pc, #200]	; (800117c <HAL_GPIO_Init+0x168>)
 80010b4:	2784      	movs	r7, #132	; 0x84
 80010b6:	51e6      	str	r6, [r4, r7]

        temp = EXTI->IMR1;
 80010b8:	2680      	movs	r6, #128	; 0x80
 80010ba:	59a4      	ldr	r4, [r4, r6]
        temp &= ~(iocurrent);
 80010bc:	4022      	ands	r2, r4
        if ((GPIO_Init->Mode & EXTI_IT) != 0x00u)
 80010be:	684e      	ldr	r6, [r1, #4]
 80010c0:	03f6      	lsls	r6, r6, #15
 80010c2:	d501      	bpl.n	80010c8 <HAL_GPIO_Init+0xb4>
        {
          temp |= iocurrent;
 80010c4:	002a      	movs	r2, r5
 80010c6:	4322      	orrs	r2, r4
        }
        EXTI->IMR1 = temp;
 80010c8:	4d2c      	ldr	r5, [pc, #176]	; (800117c <HAL_GPIO_Init+0x168>)
 80010ca:	2480      	movs	r4, #128	; 0x80
 80010cc:	512a      	str	r2, [r5, r4]
      }
    }

    position++;
 80010ce:	3301      	adds	r3, #1
  while (((GPIO_Init->Pin) >> position) != 0x00u)
 80010d0:	680c      	ldr	r4, [r1, #0]
 80010d2:	0022      	movs	r2, r4
 80010d4:	40da      	lsrs	r2, r3
 80010d6:	d04f      	beq.n	8001178 <HAL_GPIO_Init+0x164>
    iocurrent = (GPIO_Init->Pin) & (1uL << position);
 80010d8:	2201      	movs	r2, #1
 80010da:	409a      	lsls	r2, r3
 80010dc:	0025      	movs	r5, r4
 80010de:	4015      	ands	r5, r2
    if (iocurrent != 0x00u)
 80010e0:	4214      	tst	r4, r2
 80010e2:	d0f4      	beq.n	80010ce <HAL_GPIO_Init+0xba>
      if (((GPIO_Init->Mode & GPIO_MODE) == MODE_OUTPUT) || ((GPIO_Init->Mode & GPIO_MODE) == MODE_AF))
 80010e4:	2403      	movs	r4, #3
 80010e6:	684e      	ldr	r6, [r1, #4]
 80010e8:	4034      	ands	r4, r6
 80010ea:	3c01      	subs	r4, #1
 80010ec:	2c01      	cmp	r4, #1
 80010ee:	d994      	bls.n	800101a <HAL_GPIO_Init+0x6>
      if ((GPIO_Init->Mode & GPIO_MODE) != MODE_ANALOG)
 80010f0:	2203      	movs	r2, #3
 80010f2:	684c      	ldr	r4, [r1, #4]
 80010f4:	4022      	ands	r2, r4
 80010f6:	2a03      	cmp	r2, #3
 80010f8:	d009      	beq.n	800110e <HAL_GPIO_Init+0xfa>
        temp = GPIOx->PUPDR;
 80010fa:	68c2      	ldr	r2, [r0, #12]
        temp &= ~(GPIO_PUPDR_PUPD0 << (position * 2u));
 80010fc:	005e      	lsls	r6, r3, #1
 80010fe:	2403      	movs	r4, #3
 8001100:	40b4      	lsls	r4, r6
 8001102:	43a2      	bics	r2, r4
 8001104:	0014      	movs	r4, r2
        temp |= ((GPIO_Init->Pull) << (position * 2u));
 8001106:	688a      	ldr	r2, [r1, #8]
 8001108:	40b2      	lsls	r2, r6
 800110a:	4322      	orrs	r2, r4
        GPIOx->PUPDR = temp;
 800110c:	60c2      	str	r2, [r0, #12]
      if ((GPIO_Init->Mode & GPIO_MODE) == MODE_AF)
 800110e:	2203      	movs	r2, #3
 8001110:	684c      	ldr	r4, [r1, #4]
 8001112:	4022      	ands	r2, r4
 8001114:	2a02      	cmp	r2, #2
 8001116:	d094      	beq.n	8001042 <HAL_GPIO_Init+0x2e>
      temp = GPIOx->MODER;
 8001118:	6804      	ldr	r4, [r0, #0]
      temp &= ~(GPIO_MODER_MODE0 << (position * 2u));
 800111a:	005e      	lsls	r6, r3, #1
 800111c:	2203      	movs	r2, #3
 800111e:	0017      	movs	r7, r2
 8001120:	40b7      	lsls	r7, r6
 8001122:	43bc      	bics	r4, r7
      temp |= ((GPIO_Init->Mode & GPIO_MODE) << (position * 2u));
 8001124:	684f      	ldr	r7, [r1, #4]
 8001126:	403a      	ands	r2, r7
 8001128:	40b2      	lsls	r2, r6
 800112a:	4322      	orrs	r2, r4
      GPIOx->MODER = temp;
 800112c:	6002      	str	r2, [r0, #0]
      if ((GPIO_Init->Mode & EXTI_MODE) != 0x00u)
 800112e:	22c0      	movs	r2, #192	; 0xc0
 8001130:	0292      	lsls	r2, r2, #10
 8001132:	684c      	ldr	r4, [r1, #4]
 8001134:	4214      	tst	r4, r2
 8001136:	d0ca      	beq.n	80010ce <HAL_GPIO_Init+0xba>
        temp = EXTI->EXTICR[position >> 2u];
 8001138:	089a      	lsrs	r2, r3, #2
 800113a:	0014      	movs	r4, r2
 800113c:	3418      	adds	r4, #24
 800113e:	00a4      	lsls	r4, r4, #2
 8001140:	4e0e      	ldr	r6, [pc, #56]	; (800117c <HAL_GPIO_Init+0x168>)
 8001142:	59a7      	ldr	r7, [r4, r6]
        temp &= ~(0x0FuL << (8u * (position & 0x03u)));
 8001144:	2403      	movs	r4, #3
 8001146:	401c      	ands	r4, r3
 8001148:	00e4      	lsls	r4, r4, #3
 800114a:	260f      	movs	r6, #15
 800114c:	40a6      	lsls	r6, r4
 800114e:	43b7      	bics	r7, r6
        temp |= (GPIO_GET_INDEX(GPIOx) << (8u * (position & 0x03u)));
 8001150:	26a0      	movs	r6, #160	; 0xa0
 8001152:	05f6      	lsls	r6, r6, #23
 8001154:	42b0      	cmp	r0, r6
 8001156:	d086      	beq.n	8001066 <HAL_GPIO_Init+0x52>
 8001158:	4e09      	ldr	r6, [pc, #36]	; (8001180 <HAL_GPIO_Init+0x16c>)
 800115a:	42b0      	cmp	r0, r6
 800115c:	d008      	beq.n	8001170 <HAL_GPIO_Init+0x15c>
 800115e:	4e09      	ldr	r6, [pc, #36]	; (8001184 <HAL_GPIO_Init+0x170>)
 8001160:	42b0      	cmp	r0, r6
 8001162:	d007      	beq.n	8001174 <HAL_GPIO_Init+0x160>
 8001164:	4e08      	ldr	r6, [pc, #32]	; (8001188 <HAL_GPIO_Init+0x174>)
 8001166:	42b0      	cmp	r0, r6
 8001168:	d100      	bne.n	800116c <HAL_GPIO_Init+0x158>
 800116a:	e77a      	b.n	8001062 <HAL_GPIO_Init+0x4e>
 800116c:	2605      	movs	r6, #5
 800116e:	e77b      	b.n	8001068 <HAL_GPIO_Init+0x54>
 8001170:	2601      	movs	r6, #1
 8001172:	e779      	b.n	8001068 <HAL_GPIO_Init+0x54>
 8001174:	2602      	movs	r6, #2
 8001176:	e777      	b.n	8001068 <HAL_GPIO_Init+0x54>
  }
}
 8001178:	bdf0      	pop	{r4, r5, r6, r7, pc}
 800117a:	46c0      	nop			; (mov r8, r8)
 800117c:	40021800 	.word	0x40021800
 8001180:	50000400 	.word	0x50000400
 8001184:	50000800 	.word	0x50000800
 8001188:	50000c00 	.word	0x50000c00

0800118c <HAL_PWREx_ControlVoltageScaling>:
  *        cleared before returning the status. If the flag is not cleared within
  *        6 microseconds, HAL_TIMEOUT status is reported.
  * @retval HAL Status
  */
HAL_StatusTypeDef HAL_PWREx_ControlVoltageScaling(uint32_t VoltageScaling)
{
 800118c:	b510      	push	{r4, lr}
  uint32_t wait_loop_index;

  assert_param(IS_PWR_VOLTAGE_SCALING_RANGE(VoltageScaling));

  /* Modify voltage scaling range */
  MODIFY_REG(PWR->CR1, PWR_CR1_VOS, VoltageScaling);
 800118e:	4a10      	ldr	r2, [pc, #64]	; (80011d0 <HAL_PWREx_ControlVoltageScaling+0x44>)
 8001190:	6813      	ldr	r3, [r2, #0]
 8001192:	4910      	ldr	r1, [pc, #64]	; (80011d4 <HAL_PWREx_ControlVoltageScaling+0x48>)
 8001194:	400b      	ands	r3, r1
 8001196:	4303      	orrs	r3, r0
 8001198:	6013      	str	r3, [r2, #0]

  /* In case of Range 1 selected, we need to ensure that main regulator reaches new value */
  if (VoltageScaling == PWR_REGULATOR_VOLTAGE_SCALE1)
 800119a:	2380      	movs	r3, #128	; 0x80
 800119c:	009b      	lsls	r3, r3, #2
 800119e:	4298      	cmp	r0, r3
 80011a0:	d001      	beq.n	80011a6 <HAL_PWREx_ControlVoltageScaling+0x1a>
        return HAL_TIMEOUT;
      }
    }
  }

  return HAL_OK;
 80011a2:	2000      	movs	r0, #0
}
 80011a4:	bd10      	pop	{r4, pc}
    wait_loop_index = ((PWR_VOSF_SETTING_DELAY_6_US * SystemCoreClock) / 1000000U) + 1U;
 80011a6:	4b0c      	ldr	r3, [pc, #48]	; (80011d8 <HAL_PWREx_ControlVoltageScaling+0x4c>)
 80011a8:	681b      	ldr	r3, [r3, #0]
 80011aa:	0058      	lsls	r0, r3, #1
 80011ac:	18c0      	adds	r0, r0, r3
 80011ae:	0040      	lsls	r0, r0, #1
 80011b0:	490a      	ldr	r1, [pc, #40]	; (80011dc <HAL_PWREx_ControlVoltageScaling+0x50>)
 80011b2:	f7fe ffa7 	bl	8000104 <__udivsi3>
 80011b6:	3001      	adds	r0, #1
    while (HAL_IS_BIT_SET(PWR->SR2, PWR_SR2_VOSF))
 80011b8:	4b05      	ldr	r3, [pc, #20]	; (80011d0 <HAL_PWREx_ControlVoltageScaling+0x44>)
 80011ba:	695b      	ldr	r3, [r3, #20]
 80011bc:	055b      	lsls	r3, r3, #21
 80011be:	d503      	bpl.n	80011c8 <HAL_PWREx_ControlVoltageScaling+0x3c>
      if (wait_loop_index != 0U)
 80011c0:	2800      	cmp	r0, #0
 80011c2:	d003      	beq.n	80011cc <HAL_PWREx_ControlVoltageScaling+0x40>
        wait_loop_index--;
 80011c4:	3801      	subs	r0, #1
 80011c6:	e7f7      	b.n	80011b8 <HAL_PWREx_ControlVoltageScaling+0x2c>
  return HAL_OK;
 80011c8:	2000      	movs	r0, #0
 80011ca:	e7eb      	b.n	80011a4 <HAL_PWREx_ControlVoltageScaling+0x18>
        return HAL_TIMEOUT;
 80011cc:	2003      	movs	r0, #3
 80011ce:	e7e9      	b.n	80011a4 <HAL_PWREx_ControlVoltageScaling+0x18>
 80011d0:	40007000 	.word	0x40007000
 80011d4:	fffff9ff 	.word	0xfffff9ff
 80011d8:	20000000 	.word	0x20000000
 80011dc:	000f4240 	.word	0x000f4240

080011e0 <HAL_RCC_OscConfig>:
  *         supported by this function. User should request a transition to LSE Off
  *         first and then to LSE On or LSE Bypass.
  * @retval HAL status
  */
HAL_StatusTypeDef HAL_RCC_OscConfig(RCC_OscInitTypeDef  *RCC_OscInitStruct)
{
 80011e0:	b570      	push	{r4, r5, r6, lr}
 80011e2:	b082      	sub	sp, #8
 80011e4:	1e04      	subs	r4, r0, #0
  uint32_t tickstart;
  uint32_t temp_sysclksrc;
  uint32_t temp_pllckcfg;

  /* Check Null pointer */
  if (RCC_OscInitStruct == NULL)
 80011e6:	d100      	bne.n	80011ea <HAL_RCC_OscConfig+0xa>
 80011e8:	e231      	b.n	800164e <HAL_RCC_OscConfig+0x46e>

  /* Check the parameters */
  assert_param(IS_RCC_OSCILLATORTYPE(RCC_OscInitStruct->OscillatorType));

  /*------------------------------- HSE Configuration ------------------------*/
  if (((RCC_OscInitStruct->OscillatorType) & RCC_OSCILLATORTYPE_HSE) == RCC_OSCILLATORTYPE_HSE)
 80011ea:	6803      	ldr	r3, [r0, #0]
 80011ec:	07db      	lsls	r3, r3, #31
 80011ee:	d539      	bpl.n	8001264 <HAL_RCC_OscConfig+0x84>
  {
    /* Check the parameters */
    assert_param(IS_RCC_HSE(RCC_OscInitStruct->HSEState));

    temp_sysclksrc = __HAL_RCC_GET_SYSCLK_SOURCE();
 80011f0:	4ac1      	ldr	r2, [pc, #772]	; (80014f8 <HAL_RCC_OscConfig+0x318>)
 80011f2:	6891      	ldr	r1, [r2, #8]
 80011f4:	2338      	movs	r3, #56	; 0x38
 80011f6:	400b      	ands	r3, r1
    temp_pllckcfg = __HAL_RCC_GET_PLL_OSCSOURCE();
 80011f8:	68d1      	ldr	r1, [r2, #12]
 80011fa:	2203      	movs	r2, #3
 80011fc:	400a      	ands	r2, r1

    /* When the HSE is used as system clock or clock source for PLL in these cases it is not allowed to be disabled */
    if (((temp_sysclksrc == RCC_SYSCLKSOURCE_STATUS_PLLCLK) && (temp_pllckcfg == RCC_PLLSOURCE_HSE))
 80011fe:	2b10      	cmp	r3, #16
 8001200:	d026      	beq.n	8001250 <HAL_RCC_OscConfig+0x70>
        || (temp_sysclksrc == RCC_SYSCLKSOURCE_STATUS_HSE))
 8001202:	2b08      	cmp	r3, #8
 8001204:	d026      	beq.n	8001254 <HAL_RCC_OscConfig+0x74>
      }
    }
    else
    {
      /* Set the new HSE configuration ---------------------------------------*/
      __HAL_RCC_HSE_CONFIG(RCC_OscInitStruct->HSEState);
 8001206:	6863      	ldr	r3, [r4, #4]
 8001208:	2280      	movs	r2, #128	; 0x80
 800120a:	0252      	lsls	r2, r2, #9
 800120c:	4293      	cmp	r3, r2
 800120e:	d07f      	beq.n	8001310 <HAL_RCC_OscConfig+0x130>
 8001210:	22a0      	movs	r2, #160	; 0xa0
 8001212:	02d2      	lsls	r2, r2, #11
 8001214:	4293      	cmp	r3, r2
 8001216:	d100      	bne.n	800121a <HAL_RCC_OscConfig+0x3a>
 8001218:	e081      	b.n	800131e <HAL_RCC_OscConfig+0x13e>
 800121a:	4bb7      	ldr	r3, [pc, #732]	; (80014f8 <HAL_RCC_OscConfig+0x318>)
 800121c:	681a      	ldr	r2, [r3, #0]
 800121e:	49b7      	ldr	r1, [pc, #732]	; (80014fc <HAL_RCC_OscConfig+0x31c>)
 8001220:	400a      	ands	r2, r1
 8001222:	601a      	str	r2, [r3, #0]
 8001224:	681a      	ldr	r2, [r3, #0]
 8001226:	49b6      	ldr	r1, [pc, #728]	; (8001500 <HAL_RCC_OscConfig+0x320>)
 8001228:	400a      	ands	r2, r1
 800122a:	601a      	str	r2, [r3, #0]

      /* Check the HSE State */
      if (RCC_OscInitStruct->HSEState != RCC_HSE_OFF)
 800122c:	6863      	ldr	r3, [r4, #4]
 800122e:	2b00      	cmp	r3, #0
 8001230:	d100      	bne.n	8001234 <HAL_RCC_OscConfig+0x54>
 8001232:	e080      	b.n	8001336 <HAL_RCC_OscConfig+0x156>
      {
        /* Get Start Tick*/
        tickstart = HAL_GetTick();
 8001234:	f7ff fcde 	bl	8000bf4 <HAL_GetTick>
 8001238:	0005      	movs	r5, r0

        /* Wait till HSE is ready */
        while (READ_BIT(RCC->CR, RCC_CR_HSERDY) == 0U)
 800123a:	4baf      	ldr	r3, [pc, #700]	; (80014f8 <HAL_RCC_OscConfig+0x318>)
 800123c:	681b      	ldr	r3, [r3, #0]
 800123e:	039b      	lsls	r3, r3, #14
 8001240:	d410      	bmi.n	8001264 <HAL_RCC_OscConfig+0x84>
        {
          if ((HAL_GetTick() - tickstart) > HSE_TIMEOUT_VALUE)
 8001242:	f7ff fcd7 	bl	8000bf4 <HAL_GetTick>
 8001246:	1b40      	subs	r0, r0, r5
 8001248:	2864      	cmp	r0, #100	; 0x64
 800124a:	d9f6      	bls.n	800123a <HAL_RCC_OscConfig+0x5a>
          {
            return HAL_TIMEOUT;
 800124c:	2003      	movs	r0, #3
 800124e:	e1ff      	b.n	8001650 <HAL_RCC_OscConfig+0x470>
    if (((temp_sysclksrc == RCC_SYSCLKSOURCE_STATUS_PLLCLK) && (temp_pllckcfg == RCC_PLLSOURCE_HSE))
 8001250:	2a03      	cmp	r2, #3
 8001252:	d1d6      	bne.n	8001202 <HAL_RCC_OscConfig+0x22>
      if ((READ_BIT(RCC->CR, RCC_CR_HSERDY) != 0U) && (RCC_OscInitStruct->HSEState == RCC_HSE_OFF))
 8001254:	4ba8      	ldr	r3, [pc, #672]	; (80014f8 <HAL_RCC_OscConfig+0x318>)
 8001256:	681b      	ldr	r3, [r3, #0]
 8001258:	039b      	lsls	r3, r3, #14
 800125a:	d503      	bpl.n	8001264 <HAL_RCC_OscConfig+0x84>
 800125c:	6863      	ldr	r3, [r4, #4]
 800125e:	2b00      	cmp	r3, #0
 8001260:	d100      	bne.n	8001264 <HAL_RCC_OscConfig+0x84>
 8001262:	e1f7      	b.n	8001654 <HAL_RCC_OscConfig+0x474>
        }
      }
    }
  }
  /*----------------------------- HSI Configuration --------------------------*/
  if (((RCC_OscInitStruct->OscillatorType) & RCC_OSCILLATORTYPE_HSI) == RCC_OSCILLATORTYPE_HSI)
 8001264:	6823      	ldr	r3, [r4, #0]
 8001266:	079b      	lsls	r3, r3, #30
 8001268:	d531      	bpl.n	80012ce <HAL_RCC_OscConfig+0xee>
    assert_param(IS_RCC_HSI(RCC_OscInitStruct->HSIState));
    assert_param(IS_RCC_HSI_CALIBRATION_VALUE(RCC_OscInitStruct->HSICalibrationValue));
    assert_param(IS_RCC_HSIDIV(RCC_OscInitStruct->HSIDiv));

    /* Check if HSI16 is used as system clock or as PLL source when PLL is selected as system clock */
    temp_sysclksrc = __HAL_RCC_GET_SYSCLK_SOURCE();
 800126a:	4aa3      	ldr	r2, [pc, #652]	; (80014f8 <HAL_RCC_OscConfig+0x318>)
 800126c:	6893      	ldr	r3, [r2, #8]
 800126e:	2138      	movs	r1, #56	; 0x38
 8001270:	400b      	ands	r3, r1
    temp_pllckcfg = __HAL_RCC_GET_PLL_OSCSOURCE();
 8001272:	68d1      	ldr	r1, [r2, #12]
 8001274:	2203      	movs	r2, #3
 8001276:	400a      	ands	r2, r1
    if (((temp_sysclksrc == RCC_SYSCLKSOURCE_STATUS_PLLCLK) && (temp_pllckcfg == RCC_PLLSOURCE_HSI))
 8001278:	2b10      	cmp	r3, #16
 800127a:	d06a      	beq.n	8001352 <HAL_RCC_OscConfig+0x172>
        || (temp_sysclksrc == RCC_SYSCLKSOURCE_STATUS_HSI))
 800127c:	2b00      	cmp	r3, #0
 800127e:	d16b      	bne.n	8001358 <HAL_RCC_OscConfig+0x178>
    {
      /* When HSI is used as system clock or as PLL input clock it can not be disabled */
      if ((READ_BIT(RCC->CR, RCC_CR_HSIRDY) != 0U) && (RCC_OscInitStruct->HSIState == RCC_HSI_OFF))
 8001280:	4a9d      	ldr	r2, [pc, #628]	; (80014f8 <HAL_RCC_OscConfig+0x318>)
 8001282:	6812      	ldr	r2, [r2, #0]
 8001284:	0552      	lsls	r2, r2, #21
 8001286:	d503      	bpl.n	8001290 <HAL_RCC_OscConfig+0xb0>
 8001288:	68e2      	ldr	r2, [r4, #12]
 800128a:	2a00      	cmp	r2, #0
 800128c:	d100      	bne.n	8001290 <HAL_RCC_OscConfig+0xb0>
 800128e:	e1e3      	b.n	8001658 <HAL_RCC_OscConfig+0x478>
      }
      /* Otherwise, just the calibration is allowed */
      else
      {
        /* Adjusts the Internal High Speed oscillator (HSI) calibration value.*/
        __HAL_RCC_HSI_CALIBRATIONVALUE_ADJUST(RCC_OscInitStruct->HSICalibrationValue);
 8001290:	4899      	ldr	r0, [pc, #612]	; (80014f8 <HAL_RCC_OscConfig+0x318>)
 8001292:	6842      	ldr	r2, [r0, #4]
 8001294:	499b      	ldr	r1, [pc, #620]	; (8001504 <HAL_RCC_OscConfig+0x324>)
 8001296:	400a      	ands	r2, r1
 8001298:	6961      	ldr	r1, [r4, #20]
 800129a:	0209      	lsls	r1, r1, #8
 800129c:	430a      	orrs	r2, r1
 800129e:	6042      	str	r2, [r0, #4]

        if (temp_sysclksrc == RCC_SYSCLKSOURCE_STATUS_HSI)
 80012a0:	2b00      	cmp	r3, #0
 80012a2:	d10d      	bne.n	80012c0 <HAL_RCC_OscConfig+0xe0>
        {
          /* Adjust the HSI16 division factor */
          __HAL_RCC_HSI_CONFIG(RCC_OscInitStruct->HSIDiv);
 80012a4:	6803      	ldr	r3, [r0, #0]
 80012a6:	4998      	ldr	r1, [pc, #608]	; (8001508 <HAL_RCC_OscConfig+0x328>)
 80012a8:	400b      	ands	r3, r1
 80012aa:	6921      	ldr	r1, [r4, #16]
 80012ac:	430b      	orrs	r3, r1
 80012ae:	6003      	str	r3, [r0, #0]

          /* Update the SystemCoreClock global variable with HSISYS value  */
          SystemCoreClock = (HSI_VALUE / (1UL << ((READ_BIT(RCC->CR, RCC_CR_HSIDIV)) >> RCC_CR_HSIDIV_Pos)));
 80012b0:	6803      	ldr	r3, [r0, #0]
 80012b2:	0adb      	lsrs	r3, r3, #11
 80012b4:	2207      	movs	r2, #7
 80012b6:	401a      	ands	r2, r3
 80012b8:	4b94      	ldr	r3, [pc, #592]	; (800150c <HAL_RCC_OscConfig+0x32c>)
 80012ba:	40d3      	lsrs	r3, r2
 80012bc:	4a94      	ldr	r2, [pc, #592]	; (8001510 <HAL_RCC_OscConfig+0x330>)
 80012be:	6013      	str	r3, [r2, #0]
        }

        /* Adapt Systick interrupt period */
        if (HAL_InitTick(uwTickPrio) != HAL_OK)
 80012c0:	4b94      	ldr	r3, [pc, #592]	; (8001514 <HAL_RCC_OscConfig+0x334>)
 80012c2:	6818      	ldr	r0, [r3, #0]
 80012c4:	f7ff fc4a 	bl	8000b5c <HAL_InitTick>
 80012c8:	2800      	cmp	r0, #0
 80012ca:	d000      	beq.n	80012ce <HAL_RCC_OscConfig+0xee>
 80012cc:	e1c6      	b.n	800165c <HAL_RCC_OscConfig+0x47c>
        }
      }
    }
  }
  /*------------------------------ LSI Configuration -------------------------*/
  if (((RCC_OscInitStruct->OscillatorType) & RCC_OSCILLATORTYPE_LSI) == RCC_OSCILLATORTYPE_LSI)
 80012ce:	6823      	ldr	r3, [r4, #0]
 80012d0:	071b      	lsls	r3, r3, #28
 80012d2:	d400      	bmi.n	80012d6 <HAL_RCC_OscConfig+0xf6>
 80012d4:	e081      	b.n	80013da <HAL_RCC_OscConfig+0x1fa>
  {
    /* Check the parameters */
    assert_param(IS_RCC_LSI(RCC_OscInitStruct->LSIState));

    /* Check if LSI is used as system clock */
    if (__HAL_RCC_GET_SYSCLK_SOURCE() == RCC_SYSCLKSOURCE_STATUS_LSI)
 80012d6:	4b88      	ldr	r3, [pc, #544]	; (80014f8 <HAL_RCC_OscConfig+0x318>)
 80012d8:	689a      	ldr	r2, [r3, #8]
 80012da:	2338      	movs	r3, #56	; 0x38
 80012dc:	4013      	ands	r3, r2
 80012de:	2b18      	cmp	r3, #24
 80012e0:	d073      	beq.n	80013ca <HAL_RCC_OscConfig+0x1ea>
      }
    }
    else
    {
      /* Check the LSI State */
      if (RCC_OscInitStruct->LSIState != RCC_LSI_OFF)
 80012e2:	69a3      	ldr	r3, [r4, #24]
 80012e4:	2b00      	cmp	r3, #0
 80012e6:	d100      	bne.n	80012ea <HAL_RCC_OscConfig+0x10a>
 80012e8:	e0b4      	b.n	8001454 <HAL_RCC_OscConfig+0x274>
      {
        /* Enable the Internal Low Speed oscillator (LSI). */
        __HAL_RCC_LSI_ENABLE();
 80012ea:	4a83      	ldr	r2, [pc, #524]	; (80014f8 <HAL_RCC_OscConfig+0x318>)
 80012ec:	6e13      	ldr	r3, [r2, #96]	; 0x60
 80012ee:	2101      	movs	r1, #1
 80012f0:	430b      	orrs	r3, r1
 80012f2:	6613      	str	r3, [r2, #96]	; 0x60

        /* Get Start Tick*/
        tickstart = HAL_GetTick();
 80012f4:	f7ff fc7e 	bl	8000bf4 <HAL_GetTick>
 80012f8:	0005      	movs	r5, r0

        /* Wait till LSI is ready */
        while (READ_BIT(RCC->CSR, RCC_CSR_LSIRDY) == 0U)
 80012fa:	4b7f      	ldr	r3, [pc, #508]	; (80014f8 <HAL_RCC_OscConfig+0x318>)
 80012fc:	6e1b      	ldr	r3, [r3, #96]	; 0x60
 80012fe:	079b      	lsls	r3, r3, #30
 8001300:	d46b      	bmi.n	80013da <HAL_RCC_OscConfig+0x1fa>
        {
          if ((HAL_GetTick() - tickstart) > LSI_TIMEOUT_VALUE)
 8001302:	f7ff fc77 	bl	8000bf4 <HAL_GetTick>
 8001306:	1b40      	subs	r0, r0, r5
 8001308:	2802      	cmp	r0, #2
 800130a:	d9f6      	bls.n	80012fa <HAL_RCC_OscConfig+0x11a>
          {
            return HAL_TIMEOUT;
 800130c:	2003      	movs	r0, #3
 800130e:	e19f      	b.n	8001650 <HAL_RCC_OscConfig+0x470>
      __HAL_RCC_HSE_CONFIG(RCC_OscInitStruct->HSEState);
 8001310:	4a79      	ldr	r2, [pc, #484]	; (80014f8 <HAL_RCC_OscConfig+0x318>)
 8001312:	6811      	ldr	r1, [r2, #0]
 8001314:	2380      	movs	r3, #128	; 0x80
 8001316:	025b      	lsls	r3, r3, #9
 8001318:	430b      	orrs	r3, r1
 800131a:	6013      	str	r3, [r2, #0]
 800131c:	e786      	b.n	800122c <HAL_RCC_OscConfig+0x4c>
 800131e:	4b76      	ldr	r3, [pc, #472]	; (80014f8 <HAL_RCC_OscConfig+0x318>)
 8001320:	6819      	ldr	r1, [r3, #0]
 8001322:	2280      	movs	r2, #128	; 0x80
 8001324:	02d2      	lsls	r2, r2, #11
 8001326:	430a      	orrs	r2, r1
 8001328:	601a      	str	r2, [r3, #0]
 800132a:	6819      	ldr	r1, [r3, #0]
 800132c:	2280      	movs	r2, #128	; 0x80
 800132e:	0252      	lsls	r2, r2, #9
 8001330:	430a      	orrs	r2, r1
 8001332:	601a      	str	r2, [r3, #0]
 8001334:	e77a      	b.n	800122c <HAL_RCC_OscConfig+0x4c>
        tickstart = HAL_GetTick();
 8001336:	f7ff fc5d 	bl	8000bf4 <HAL_GetTick>
 800133a:	0005      	movs	r5, r0
        while (READ_BIT(RCC->CR, RCC_CR_HSERDY) != 0U)
 800133c:	4b6e      	ldr	r3, [pc, #440]	; (80014f8 <HAL_RCC_OscConfig+0x318>)
 800133e:	681b      	ldr	r3, [r3, #0]
 8001340:	039b      	lsls	r3, r3, #14
 8001342:	d58f      	bpl.n	8001264 <HAL_RCC_OscConfig+0x84>
          if ((HAL_GetTick() - tickstart) > HSE_TIMEOUT_VALUE)
 8001344:	f7ff fc56 	bl	8000bf4 <HAL_GetTick>
 8001348:	1b40      	subs	r0, r0, r5
 800134a:	2864      	cmp	r0, #100	; 0x64
 800134c:	d9f6      	bls.n	800133c <HAL_RCC_OscConfig+0x15c>
            return HAL_TIMEOUT;
 800134e:	2003      	movs	r0, #3
 8001350:	e17e      	b.n	8001650 <HAL_RCC_OscConfig+0x470>
    if (((temp_sysclksrc == RCC_SYSCLKSOURCE_STATUS_PLLCLK) && (temp_pllckcfg == RCC_PLLSOURCE_HSI))
 8001352:	2a02      	cmp	r2, #2
 8001354:	d192      	bne.n	800127c <HAL_RCC_OscConfig+0x9c>
 8001356:	e793      	b.n	8001280 <HAL_RCC_OscConfig+0xa0>
      if (RCC_OscInitStruct->HSIState != RCC_HSI_OFF)
 8001358:	68e3      	ldr	r3, [r4, #12]
 800135a:	2b00      	cmp	r3, #0
 800135c:	d022      	beq.n	80013a4 <HAL_RCC_OscConfig+0x1c4>
        __HAL_RCC_HSI_CONFIG(RCC_OscInitStruct->HSIDiv);
 800135e:	4a66      	ldr	r2, [pc, #408]	; (80014f8 <HAL_RCC_OscConfig+0x318>)
 8001360:	6813      	ldr	r3, [r2, #0]
 8001362:	4969      	ldr	r1, [pc, #420]	; (8001508 <HAL_RCC_OscConfig+0x328>)
 8001364:	400b      	ands	r3, r1
 8001366:	6921      	ldr	r1, [r4, #16]
 8001368:	430b      	orrs	r3, r1
 800136a:	6013      	str	r3, [r2, #0]
        __HAL_RCC_HSI_ENABLE();
 800136c:	6811      	ldr	r1, [r2, #0]
 800136e:	2380      	movs	r3, #128	; 0x80
 8001370:	005b      	lsls	r3, r3, #1
 8001372:	430b      	orrs	r3, r1
 8001374:	6013      	str	r3, [r2, #0]
        tickstart = HAL_GetTick();
 8001376:	f7ff fc3d 	bl	8000bf4 <HAL_GetTick>
 800137a:	0005      	movs	r5, r0
        while (READ_BIT(RCC->CR, RCC_CR_HSIRDY) == 0U)
 800137c:	4b5e      	ldr	r3, [pc, #376]	; (80014f8 <HAL_RCC_OscConfig+0x318>)
 800137e:	681b      	ldr	r3, [r3, #0]
 8001380:	055b      	lsls	r3, r3, #21
 8001382:	d406      	bmi.n	8001392 <HAL_RCC_OscConfig+0x1b2>
          if ((HAL_GetTick() - tickstart) > HSI_TIMEOUT_VALUE)
 8001384:	f7ff fc36 	bl	8000bf4 <HAL_GetTick>
 8001388:	1b40      	subs	r0, r0, r5
 800138a:	2802      	cmp	r0, #2
 800138c:	d9f6      	bls.n	800137c <HAL_RCC_OscConfig+0x19c>
            return HAL_TIMEOUT;
 800138e:	2003      	movs	r0, #3
 8001390:	e15e      	b.n	8001650 <HAL_RCC_OscConfig+0x470>
        __HAL_RCC_HSI_CALIBRATIONVALUE_ADJUST(RCC_OscInitStruct->HSICalibrationValue);
 8001392:	4959      	ldr	r1, [pc, #356]	; (80014f8 <HAL_RCC_OscConfig+0x318>)
 8001394:	684b      	ldr	r3, [r1, #4]
 8001396:	4a5b      	ldr	r2, [pc, #364]	; (8001504 <HAL_RCC_OscConfig+0x324>)
 8001398:	4013      	ands	r3, r2
 800139a:	6962      	ldr	r2, [r4, #20]
 800139c:	0212      	lsls	r2, r2, #8
 800139e:	4313      	orrs	r3, r2
 80013a0:	604b      	str	r3, [r1, #4]
 80013a2:	e794      	b.n	80012ce <HAL_RCC_OscConfig+0xee>
        __HAL_RCC_HSI_DISABLE();
 80013a4:	4a54      	ldr	r2, [pc, #336]	; (80014f8 <HAL_RCC_OscConfig+0x318>)
 80013a6:	6813      	ldr	r3, [r2, #0]
 80013a8:	495b      	ldr	r1, [pc, #364]	; (8001518 <HAL_RCC_OscConfig+0x338>)
 80013aa:	400b      	ands	r3, r1
 80013ac:	6013      	str	r3, [r2, #0]
        tickstart = HAL_GetTick();
 80013ae:	f7ff fc21 	bl	8000bf4 <HAL_GetTick>
 80013b2:	0005      	movs	r5, r0
        while (READ_BIT(RCC->CR, RCC_CR_HSIRDY) != 0U)
 80013b4:	4b50      	ldr	r3, [pc, #320]	; (80014f8 <HAL_RCC_OscConfig+0x318>)
 80013b6:	681b      	ldr	r3, [r3, #0]
 80013b8:	055b      	lsls	r3, r3, #21
 80013ba:	d588      	bpl.n	80012ce <HAL_RCC_OscConfig+0xee>
          if ((HAL_GetTick() - tickstart) > HSI_TIMEOUT_VALUE)
 80013bc:	f7ff fc1a 	bl	8000bf4 <HAL_GetTick>
 80013c0:	1b40      	subs	r0, r0, r5
 80013c2:	2802      	cmp	r0, #2
 80013c4:	d9f6      	bls.n	80013b4 <HAL_RCC_OscConfig+0x1d4>
            return HAL_TIMEOUT;
 80013c6:	2003      	movs	r0, #3
 80013c8:	e142      	b.n	8001650 <HAL_RCC_OscConfig+0x470>
      if ((((RCC->CSR) & RCC_CSR_LSIRDY) != 0U) && (RCC_OscInitStruct->LSIState == RCC_LSI_OFF))
 80013ca:	4b4b      	ldr	r3, [pc, #300]	; (80014f8 <HAL_RCC_OscConfig+0x318>)
 80013cc:	6e1b      	ldr	r3, [r3, #96]	; 0x60
 80013ce:	079b      	lsls	r3, r3, #30
 80013d0:	d503      	bpl.n	80013da <HAL_RCC_OscConfig+0x1fa>
 80013d2:	69a3      	ldr	r3, [r4, #24]
 80013d4:	2b00      	cmp	r3, #0
 80013d6:	d100      	bne.n	80013da <HAL_RCC_OscConfig+0x1fa>
 80013d8:	e142      	b.n	8001660 <HAL_RCC_OscConfig+0x480>
        }
      }
    }
  }
  /*------------------------------ LSE Configuration -------------------------*/
  if (((RCC_OscInitStruct->OscillatorType) & RCC_OSCILLATORTYPE_LSE) == RCC_OSCILLATORTYPE_LSE)
 80013da:	6823      	ldr	r3, [r4, #0]
 80013dc:	075b      	lsls	r3, r3, #29
 80013de:	d400      	bmi.n	80013e2 <HAL_RCC_OscConfig+0x202>
 80013e0:	e0a2      	b.n	8001528 <HAL_RCC_OscConfig+0x348>

    /* Check the parameters */
    assert_param(IS_RCC_LSE(RCC_OscInitStruct->LSEState));

    /* When the LSE is used as system clock, it is not allowed disable it */
    if (__HAL_RCC_GET_SYSCLK_SOURCE() == RCC_SYSCLKSOURCE_STATUS_LSE)
 80013e2:	4b45      	ldr	r3, [pc, #276]	; (80014f8 <HAL_RCC_OscConfig+0x318>)
 80013e4:	689a      	ldr	r2, [r3, #8]
 80013e6:	2338      	movs	r3, #56	; 0x38
 80013e8:	4013      	ands	r3, r2
 80013ea:	2b20      	cmp	r3, #32
 80013ec:	d045      	beq.n	800147a <HAL_RCC_OscConfig+0x29a>
    }
    else
    {
      /* Update LSE configuration in Backup Domain control register    */
      /* Requires to enable write access to Backup Domain of necessary */
      if (__HAL_RCC_PWR_IS_CLK_DISABLED() != 0U)
 80013ee:	4b42      	ldr	r3, [pc, #264]	; (80014f8 <HAL_RCC_OscConfig+0x318>)
 80013f0:	6bdb      	ldr	r3, [r3, #60]	; 0x3c
 80013f2:	00db      	lsls	r3, r3, #3
 80013f4:	d44a      	bmi.n	800148c <HAL_RCC_OscConfig+0x2ac>
      {
        __HAL_RCC_PWR_CLK_ENABLE();
 80013f6:	4a40      	ldr	r2, [pc, #256]	; (80014f8 <HAL_RCC_OscConfig+0x318>)
 80013f8:	6bd1      	ldr	r1, [r2, #60]	; 0x3c
 80013fa:	2080      	movs	r0, #128	; 0x80
 80013fc:	0540      	lsls	r0, r0, #21
 80013fe:	4301      	orrs	r1, r0
 8001400:	63d1      	str	r1, [r2, #60]	; 0x3c
 8001402:	6bd3      	ldr	r3, [r2, #60]	; 0x3c
 8001404:	4003      	ands	r3, r0
 8001406:	9301      	str	r3, [sp, #4]
 8001408:	9b01      	ldr	r3, [sp, #4]
        pwrclkchanged = SET;
 800140a:	2501      	movs	r5, #1
      }

      if (HAL_IS_BIT_CLR(PWR->CR1, PWR_CR1_DBP))
 800140c:	4b43      	ldr	r3, [pc, #268]	; (800151c <HAL_RCC_OscConfig+0x33c>)
 800140e:	681b      	ldr	r3, [r3, #0]
 8001410:	05db      	lsls	r3, r3, #23
 8001412:	d53d      	bpl.n	8001490 <HAL_RCC_OscConfig+0x2b0>
          }
        }
      }

      /* Set the new LSE configuration -----------------------------------------*/
      __HAL_RCC_LSE_CONFIG(RCC_OscInitStruct->LSEState);
 8001414:	68a3      	ldr	r3, [r4, #8]
 8001416:	2b01      	cmp	r3, #1
 8001418:	d04e      	beq.n	80014b8 <HAL_RCC_OscConfig+0x2d8>
 800141a:	2b05      	cmp	r3, #5
 800141c:	d052      	beq.n	80014c4 <HAL_RCC_OscConfig+0x2e4>
 800141e:	4b36      	ldr	r3, [pc, #216]	; (80014f8 <HAL_RCC_OscConfig+0x318>)
 8001420:	6dda      	ldr	r2, [r3, #92]	; 0x5c
 8001422:	2101      	movs	r1, #1
 8001424:	438a      	bics	r2, r1
 8001426:	65da      	str	r2, [r3, #92]	; 0x5c
 8001428:	6dda      	ldr	r2, [r3, #92]	; 0x5c
 800142a:	3103      	adds	r1, #3
 800142c:	438a      	bics	r2, r1
 800142e:	65da      	str	r2, [r3, #92]	; 0x5c

      /* Check the LSE State */
      if (RCC_OscInitStruct->LSEState != RCC_LSE_OFF)
 8001430:	68a3      	ldr	r3, [r4, #8]
 8001432:	2b00      	cmp	r3, #0
 8001434:	d050      	beq.n	80014d8 <HAL_RCC_OscConfig+0x2f8>
      {
        /* Get Start Tick*/
        tickstart = HAL_GetTick();
 8001436:	f7ff fbdd 	bl	8000bf4 <HAL_GetTick>
 800143a:	0006      	movs	r6, r0

        /* Wait till LSE is ready */
        while (READ_BIT(RCC->BDCR, RCC_BDCR_LSERDY) == 0U)
 800143c:	4b2e      	ldr	r3, [pc, #184]	; (80014f8 <HAL_RCC_OscConfig+0x318>)
 800143e:	6ddb      	ldr	r3, [r3, #92]	; 0x5c
 8001440:	079b      	lsls	r3, r3, #30
 8001442:	d46f      	bmi.n	8001524 <HAL_RCC_OscConfig+0x344>
        {
          if ((HAL_GetTick() - tickstart) > RCC_LSE_TIMEOUT_VALUE)
 8001444:	f7ff fbd6 	bl	8000bf4 <HAL_GetTick>
 8001448:	1b80      	subs	r0, r0, r6
 800144a:	4b35      	ldr	r3, [pc, #212]	; (8001520 <HAL_RCC_OscConfig+0x340>)
 800144c:	4298      	cmp	r0, r3
 800144e:	d9f5      	bls.n	800143c <HAL_RCC_OscConfig+0x25c>
          {
            return HAL_TIMEOUT;
 8001450:	2003      	movs	r0, #3
 8001452:	e0fd      	b.n	8001650 <HAL_RCC_OscConfig+0x470>
        __HAL_RCC_LSI_DISABLE();
 8001454:	4a28      	ldr	r2, [pc, #160]	; (80014f8 <HAL_RCC_OscConfig+0x318>)
 8001456:	6e13      	ldr	r3, [r2, #96]	; 0x60
 8001458:	2101      	movs	r1, #1
 800145a:	438b      	bics	r3, r1
 800145c:	6613      	str	r3, [r2, #96]	; 0x60
        tickstart = HAL_GetTick();
 800145e:	f7ff fbc9 	bl	8000bf4 <HAL_GetTick>
 8001462:	0005      	movs	r5, r0
        while (READ_BIT(RCC->CSR, RCC_CSR_LSIRDY) != 0U)
 8001464:	4b24      	ldr	r3, [pc, #144]	; (80014f8 <HAL_RCC_OscConfig+0x318>)
 8001466:	6e1b      	ldr	r3, [r3, #96]	; 0x60
 8001468:	079b      	lsls	r3, r3, #30
 800146a:	d5b6      	bpl.n	80013da <HAL_RCC_OscConfig+0x1fa>
          if ((HAL_GetTick() - tickstart) > LSI_TIMEOUT_VALUE)
 800146c:	f7ff fbc2 	bl	8000bf4 <HAL_GetTick>
 8001470:	1b40      	subs	r0, r0, r5
 8001472:	2802      	cmp	r0, #2
 8001474:	d9f6      	bls.n	8001464 <HAL_RCC_OscConfig+0x284>
            return HAL_TIMEOUT;
 8001476:	2003      	movs	r0, #3
 8001478:	e0ea      	b.n	8001650 <HAL_RCC_OscConfig+0x470>
      if ((((RCC->BDCR) & RCC_BDCR_LSERDY) != 0U) && (RCC_OscInitStruct->LSEState == RCC_LSE_OFF))
 800147a:	4b1f      	ldr	r3, [pc, #124]	; (80014f8 <HAL_RCC_OscConfig+0x318>)
 800147c:	6ddb      	ldr	r3, [r3, #92]	; 0x5c
 800147e:	079b      	lsls	r3, r3, #30
 8001480:	d552      	bpl.n	8001528 <HAL_RCC_OscConfig+0x348>
 8001482:	68a3      	ldr	r3, [r4, #8]
 8001484:	2b00      	cmp	r3, #0
 8001486:	d14f      	bne.n	8001528 <HAL_RCC_OscConfig+0x348>
        return HAL_ERROR;
 8001488:	2001      	movs	r0, #1
 800148a:	e0e1      	b.n	8001650 <HAL_RCC_OscConfig+0x470>
    FlagStatus       pwrclkchanged = RESET;
 800148c:	2500      	movs	r5, #0
 800148e:	e7bd      	b.n	800140c <HAL_RCC_OscConfig+0x22c>
        SET_BIT(PWR->CR1, PWR_CR1_DBP);
 8001490:	4a22      	ldr	r2, [pc, #136]	; (800151c <HAL_RCC_OscConfig+0x33c>)
 8001492:	6811      	ldr	r1, [r2, #0]
 8001494:	2380      	movs	r3, #128	; 0x80
 8001496:	005b      	lsls	r3, r3, #1
 8001498:	430b      	orrs	r3, r1
 800149a:	6013      	str	r3, [r2, #0]
        tickstart = HAL_GetTick();
 800149c:	f7ff fbaa 	bl	8000bf4 <HAL_GetTick>
 80014a0:	0006      	movs	r6, r0
        while (HAL_IS_BIT_CLR(PWR->CR1, PWR_CR1_DBP))
 80014a2:	4b1e      	ldr	r3, [pc, #120]	; (800151c <HAL_RCC_OscConfig+0x33c>)
 80014a4:	681b      	ldr	r3, [r3, #0]
 80014a6:	05db      	lsls	r3, r3, #23
 80014a8:	d4b4      	bmi.n	8001414 <HAL_RCC_OscConfig+0x234>
          if ((HAL_GetTick() - tickstart) > RCC_DBP_TIMEOUT_VALUE)
 80014aa:	f7ff fba3 	bl	8000bf4 <HAL_GetTick>
 80014ae:	1b80      	subs	r0, r0, r6
 80014b0:	2802      	cmp	r0, #2
 80014b2:	d9f6      	bls.n	80014a2 <HAL_RCC_OscConfig+0x2c2>
            return HAL_TIMEOUT;
 80014b4:	2003      	movs	r0, #3
 80014b6:	e0cb      	b.n	8001650 <HAL_RCC_OscConfig+0x470>
      __HAL_RCC_LSE_CONFIG(RCC_OscInitStruct->LSEState);
 80014b8:	4a0f      	ldr	r2, [pc, #60]	; (80014f8 <HAL_RCC_OscConfig+0x318>)
 80014ba:	6dd3      	ldr	r3, [r2, #92]	; 0x5c
 80014bc:	2101      	movs	r1, #1
 80014be:	430b      	orrs	r3, r1
 80014c0:	65d3      	str	r3, [r2, #92]	; 0x5c
 80014c2:	e7b5      	b.n	8001430 <HAL_RCC_OscConfig+0x250>
 80014c4:	4b0c      	ldr	r3, [pc, #48]	; (80014f8 <HAL_RCC_OscConfig+0x318>)
 80014c6:	6dda      	ldr	r2, [r3, #92]	; 0x5c
 80014c8:	2104      	movs	r1, #4
 80014ca:	430a      	orrs	r2, r1
 80014cc:	65da      	str	r2, [r3, #92]	; 0x5c
 80014ce:	6dda      	ldr	r2, [r3, #92]	; 0x5c
 80014d0:	3903      	subs	r1, #3
 80014d2:	430a      	orrs	r2, r1
 80014d4:	65da      	str	r2, [r3, #92]	; 0x5c
 80014d6:	e7ab      	b.n	8001430 <HAL_RCC_OscConfig+0x250>
        }
      }
      else
      {
        /* Get Start Tick*/
        tickstart = HAL_GetTick();
 80014d8:	f7ff fb8c 	bl	8000bf4 <HAL_GetTick>
 80014dc:	0006      	movs	r6, r0

        /* Wait till LSE is disabled */
        while (READ_BIT(RCC->BDCR, RCC_BDCR_LSERDY) != 0U)
 80014de:	4b06      	ldr	r3, [pc, #24]	; (80014f8 <HAL_RCC_OscConfig+0x318>)
 80014e0:	6ddb      	ldr	r3, [r3, #92]	; 0x5c
 80014e2:	079b      	lsls	r3, r3, #30
 80014e4:	d51e      	bpl.n	8001524 <HAL_RCC_OscConfig+0x344>
        {
          if ((HAL_GetTick() - tickstart) > RCC_LSE_TIMEOUT_VALUE)
 80014e6:	f7ff fb85 	bl	8000bf4 <HAL_GetTick>
 80014ea:	1b80      	subs	r0, r0, r6
 80014ec:	4b0c      	ldr	r3, [pc, #48]	; (8001520 <HAL_RCC_OscConfig+0x340>)
 80014ee:	4298      	cmp	r0, r3
 80014f0:	d9f5      	bls.n	80014de <HAL_RCC_OscConfig+0x2fe>
          {
            return HAL_TIMEOUT;
 80014f2:	2003      	movs	r0, #3
 80014f4:	e0ac      	b.n	8001650 <HAL_RCC_OscConfig+0x470>
 80014f6:	46c0      	nop			; (mov r8, r8)
 80014f8:	40021000 	.word	0x40021000
 80014fc:	fffeffff 	.word	0xfffeffff
 8001500:	fffbffff 	.word	0xfffbffff
 8001504:	ffff80ff 	.word	0xffff80ff
 8001508:	ffffc7ff 	.word	0xffffc7ff
 800150c:	00f42400 	.word	0x00f42400
 8001510:	20000000 	.word	0x20000000
 8001514:	20000008 	.word	0x20000008
 8001518:	fffffeff 	.word	0xfffffeff
 800151c:	40007000 	.word	0x40007000
 8001520:	00001388 	.word	0x00001388
          }
        }
      }

      /* Restore clock configuration if changed */
      if (pwrclkchanged == SET)
 8001524:	2d01      	cmp	r5, #1
 8001526:	d01e      	beq.n	8001566 <HAL_RCC_OscConfig+0x386>
#endif /* RCC_HSI48_SUPPORT */
  /*-------------------------------- PLL Configuration -----------------------*/
  /* Check the parameters */
  assert_param(IS_RCC_PLL(RCC_OscInitStruct->PLL.PLLState));

  if (RCC_OscInitStruct->PLL.PLLState != RCC_PLL_NONE)
 8001528:	69e3      	ldr	r3, [r4, #28]
 800152a:	2b00      	cmp	r3, #0
 800152c:	d100      	bne.n	8001530 <HAL_RCC_OscConfig+0x350>
 800152e:	e099      	b.n	8001664 <HAL_RCC_OscConfig+0x484>
  {
    /* Check if the PLL is used as system clock or not */
    if (__HAL_RCC_GET_SYSCLK_SOURCE() != RCC_SYSCLKSOURCE_STATUS_PLLCLK)
 8001530:	4a54      	ldr	r2, [pc, #336]	; (8001684 <HAL_RCC_OscConfig+0x4a4>)
 8001532:	6891      	ldr	r1, [r2, #8]
 8001534:	2238      	movs	r2, #56	; 0x38
 8001536:	400a      	ands	r2, r1
 8001538:	2a10      	cmp	r2, #16
 800153a:	d060      	beq.n	80015fe <HAL_RCC_OscConfig+0x41e>
    {
      if (RCC_OscInitStruct->PLL.PLLState == RCC_PLL_ON)
 800153c:	2b02      	cmp	r3, #2
 800153e:	d018      	beq.n	8001572 <HAL_RCC_OscConfig+0x392>
        }
      }
      else
      {
        /* Disable the main PLL. */
        __HAL_RCC_PLL_DISABLE();
 8001540:	4a50      	ldr	r2, [pc, #320]	; (8001684 <HAL_RCC_OscConfig+0x4a4>)
 8001542:	6813      	ldr	r3, [r2, #0]
 8001544:	4950      	ldr	r1, [pc, #320]	; (8001688 <HAL_RCC_OscConfig+0x4a8>)
 8001546:	400b      	ands	r3, r1
 8001548:	6013      	str	r3, [r2, #0]

        /* Get Start Tick*/
        tickstart = HAL_GetTick();
 800154a:	f7ff fb53 	bl	8000bf4 <HAL_GetTick>
 800154e:	0004      	movs	r4, r0

        /* Wait till PLL is disabled */
        while (READ_BIT(RCC->CR, RCC_CR_PLLRDY) != 0U)
 8001550:	4b4c      	ldr	r3, [pc, #304]	; (8001684 <HAL_RCC_OscConfig+0x4a4>)
 8001552:	681b      	ldr	r3, [r3, #0]
 8001554:	019b      	lsls	r3, r3, #6
 8001556:	d54b      	bpl.n	80015f0 <HAL_RCC_OscConfig+0x410>
        {
          if ((HAL_GetTick() - tickstart) > PLL_TIMEOUT_VALUE)
 8001558:	f7ff fb4c 	bl	8000bf4 <HAL_GetTick>
 800155c:	1b00      	subs	r0, r0, r4
 800155e:	2802      	cmp	r0, #2
 8001560:	d9f6      	bls.n	8001550 <HAL_RCC_OscConfig+0x370>
          {
            return HAL_TIMEOUT;
 8001562:	2003      	movs	r0, #3
 8001564:	e074      	b.n	8001650 <HAL_RCC_OscConfig+0x470>
        __HAL_RCC_PWR_CLK_DISABLE();
 8001566:	4a47      	ldr	r2, [pc, #284]	; (8001684 <HAL_RCC_OscConfig+0x4a4>)
 8001568:	6bd3      	ldr	r3, [r2, #60]	; 0x3c
 800156a:	4948      	ldr	r1, [pc, #288]	; (800168c <HAL_RCC_OscConfig+0x4ac>)
 800156c:	400b      	ands	r3, r1
 800156e:	63d3      	str	r3, [r2, #60]	; 0x3c
 8001570:	e7da      	b.n	8001528 <HAL_RCC_OscConfig+0x348>
        __HAL_RCC_PLL_DISABLE();
 8001572:	4a44      	ldr	r2, [pc, #272]	; (8001684 <HAL_RCC_OscConfig+0x4a4>)
 8001574:	6813      	ldr	r3, [r2, #0]
 8001576:	4944      	ldr	r1, [pc, #272]	; (8001688 <HAL_RCC_OscConfig+0x4a8>)
 8001578:	400b      	ands	r3, r1
 800157a:	6013      	str	r3, [r2, #0]
        tickstart = HAL_GetTick();
 800157c:	f7ff fb3a 	bl	8000bf4 <HAL_GetTick>
 8001580:	0005      	movs	r5, r0
        while (READ_BIT(RCC->CR, RCC_CR_PLLRDY) != 0U)
 8001582:	4b40      	ldr	r3, [pc, #256]	; (8001684 <HAL_RCC_OscConfig+0x4a4>)
 8001584:	681b      	ldr	r3, [r3, #0]
 8001586:	019b      	lsls	r3, r3, #6
 8001588:	d506      	bpl.n	8001598 <HAL_RCC_OscConfig+0x3b8>
          if ((HAL_GetTick() - tickstart) > PLL_TIMEOUT_VALUE)
 800158a:	f7ff fb33 	bl	8000bf4 <HAL_GetTick>
 800158e:	1b40      	subs	r0, r0, r5
 8001590:	2802      	cmp	r0, #2
 8001592:	d9f6      	bls.n	8001582 <HAL_RCC_OscConfig+0x3a2>
            return HAL_TIMEOUT;
 8001594:	2003      	movs	r0, #3
 8001596:	e05b      	b.n	8001650 <HAL_RCC_OscConfig+0x470>
        __HAL_RCC_PLL_CONFIG(RCC_OscInitStruct->PLL.PLLSource,
 8001598:	4a3a      	ldr	r2, [pc, #232]	; (8001684 <HAL_RCC_OscConfig+0x4a4>)
 800159a:	68d3      	ldr	r3, [r2, #12]
 800159c:	493c      	ldr	r1, [pc, #240]	; (8001690 <HAL_RCC_OscConfig+0x4b0>)
 800159e:	4019      	ands	r1, r3
 80015a0:	6a23      	ldr	r3, [r4, #32]
 80015a2:	6a60      	ldr	r0, [r4, #36]	; 0x24
 80015a4:	4303      	orrs	r3, r0
 80015a6:	6aa0      	ldr	r0, [r4, #40]	; 0x28
 80015a8:	0200      	lsls	r0, r0, #8
 80015aa:	4303      	orrs	r3, r0
 80015ac:	6ae0      	ldr	r0, [r4, #44]	; 0x2c
 80015ae:	4303      	orrs	r3, r0
 80015b0:	6b20      	ldr	r0, [r4, #48]	; 0x30
 80015b2:	4303      	orrs	r3, r0
 80015b4:	6b60      	ldr	r0, [r4, #52]	; 0x34
 80015b6:	4303      	orrs	r3, r0
 80015b8:	430b      	orrs	r3, r1
 80015ba:	60d3      	str	r3, [r2, #12]
        __HAL_RCC_PLL_ENABLE();
 80015bc:	6811      	ldr	r1, [r2, #0]
 80015be:	2380      	movs	r3, #128	; 0x80
 80015c0:	045b      	lsls	r3, r3, #17
 80015c2:	430b      	orrs	r3, r1
 80015c4:	6013      	str	r3, [r2, #0]
        __HAL_RCC_PLLCLKOUT_ENABLE(RCC_PLLRCLK);
 80015c6:	68d1      	ldr	r1, [r2, #12]
 80015c8:	2380      	movs	r3, #128	; 0x80
 80015ca:	055b      	lsls	r3, r3, #21
 80015cc:	430b      	orrs	r3, r1
 80015ce:	60d3      	str	r3, [r2, #12]
        tickstart = HAL_GetTick();
 80015d0:	f7ff fb10 	bl	8000bf4 <HAL_GetTick>
 80015d4:	0004      	movs	r4, r0
        while (READ_BIT(RCC->CR, RCC_CR_PLLRDY) == 0U)
 80015d6:	4b2b      	ldr	r3, [pc, #172]	; (8001684 <HAL_RCC_OscConfig+0x4a4>)
 80015d8:	681b      	ldr	r3, [r3, #0]
 80015da:	019b      	lsls	r3, r3, #6
 80015dc:	d406      	bmi.n	80015ec <HAL_RCC_OscConfig+0x40c>
          if ((HAL_GetTick() - tickstart) > PLL_TIMEOUT_VALUE)
 80015de:	f7ff fb09 	bl	8000bf4 <HAL_GetTick>
 80015e2:	1b00      	subs	r0, r0, r4
 80015e4:	2802      	cmp	r0, #2
 80015e6:	d9f6      	bls.n	80015d6 <HAL_RCC_OscConfig+0x3f6>
            return HAL_TIMEOUT;
 80015e8:	2003      	movs	r0, #3
 80015ea:	e031      	b.n	8001650 <HAL_RCC_OscConfig+0x470>
          return HAL_ERROR;
        }
      }
    }
  }
  return HAL_OK;
 80015ec:	2000      	movs	r0, #0
 80015ee:	e02f      	b.n	8001650 <HAL_RCC_OscConfig+0x470>
        RCC->PLLCFGR &= ~(RCC_PLLCFGR_PLLSRC | RCC_PLLCFGR_PLLPEN | RCC_PLLCFGR_PLLQEN | RCC_PLLCFGR_PLLREN);
 80015f0:	4a24      	ldr	r2, [pc, #144]	; (8001684 <HAL_RCC_OscConfig+0x4a4>)
 80015f2:	68d3      	ldr	r3, [r2, #12]
 80015f4:	4927      	ldr	r1, [pc, #156]	; (8001694 <HAL_RCC_OscConfig+0x4b4>)
 80015f6:	400b      	ands	r3, r1
 80015f8:	60d3      	str	r3, [r2, #12]
  return HAL_OK;
 80015fa:	2000      	movs	r0, #0
 80015fc:	e028      	b.n	8001650 <HAL_RCC_OscConfig+0x470>
      if ((RCC_OscInitStruct->PLL.PLLState) == RCC_PLL_OFF)
 80015fe:	2b01      	cmp	r3, #1
 8001600:	d032      	beq.n	8001668 <HAL_RCC_OscConfig+0x488>
        temp_pllckcfg = RCC->PLLCFGR;
 8001602:	4b20      	ldr	r3, [pc, #128]	; (8001684 <HAL_RCC_OscConfig+0x4a4>)
 8001604:	68da      	ldr	r2, [r3, #12]
        if ((READ_BIT(temp_pllckcfg, RCC_PLLCFGR_PLLSRC) != RCC_OscInitStruct->PLL.PLLSource) ||
 8001606:	2303      	movs	r3, #3
 8001608:	4013      	ands	r3, r2
 800160a:	6a21      	ldr	r1, [r4, #32]
 800160c:	428b      	cmp	r3, r1
 800160e:	d12d      	bne.n	800166c <HAL_RCC_OscConfig+0x48c>
            (READ_BIT(temp_pllckcfg, RCC_PLLCFGR_PLLM) != RCC_OscInitStruct->PLL.PLLM) ||
 8001610:	2370      	movs	r3, #112	; 0x70
 8001612:	4013      	ands	r3, r2
        if ((READ_BIT(temp_pllckcfg, RCC_PLLCFGR_PLLSRC) != RCC_OscInitStruct->PLL.PLLSource) ||
 8001614:	6a61      	ldr	r1, [r4, #36]	; 0x24
 8001616:	428b      	cmp	r3, r1
 8001618:	d12a      	bne.n	8001670 <HAL_RCC_OscConfig+0x490>
            (READ_BIT(temp_pllckcfg, RCC_PLLCFGR_PLLN) != (RCC_OscInitStruct->PLL.PLLN << RCC_PLLCFGR_PLLN_Pos)) ||
 800161a:	21fe      	movs	r1, #254	; 0xfe
 800161c:	01c9      	lsls	r1, r1, #7
 800161e:	4011      	ands	r1, r2
 8001620:	6aa3      	ldr	r3, [r4, #40]	; 0x28
 8001622:	021b      	lsls	r3, r3, #8
            (READ_BIT(temp_pllckcfg, RCC_PLLCFGR_PLLM) != RCC_OscInitStruct->PLL.PLLM) ||
 8001624:	4299      	cmp	r1, r3
 8001626:	d125      	bne.n	8001674 <HAL_RCC_OscConfig+0x494>
            (READ_BIT(temp_pllckcfg, RCC_PLLCFGR_PLLP) != RCC_OscInitStruct->PLL.PLLP) ||
 8001628:	23f8      	movs	r3, #248	; 0xf8
 800162a:	039b      	lsls	r3, r3, #14
 800162c:	4013      	ands	r3, r2
            (READ_BIT(temp_pllckcfg, RCC_PLLCFGR_PLLN) != (RCC_OscInitStruct->PLL.PLLN << RCC_PLLCFGR_PLLN_Pos)) ||
 800162e:	6ae1      	ldr	r1, [r4, #44]	; 0x2c
 8001630:	428b      	cmp	r3, r1
 8001632:	d121      	bne.n	8001678 <HAL_RCC_OscConfig+0x498>
            (READ_BIT(temp_pllckcfg, RCC_PLLCFGR_PLLQ) != RCC_OscInitStruct->PLL.PLLQ) ||
 8001634:	23e0      	movs	r3, #224	; 0xe0
 8001636:	051b      	lsls	r3, r3, #20
 8001638:	4013      	ands	r3, r2
            (READ_BIT(temp_pllckcfg, RCC_PLLCFGR_PLLP) != RCC_OscInitStruct->PLL.PLLP) ||
 800163a:	6b21      	ldr	r1, [r4, #48]	; 0x30
 800163c:	428b      	cmp	r3, r1
 800163e:	d11d      	bne.n	800167c <HAL_RCC_OscConfig+0x49c>
            (READ_BIT(temp_pllckcfg, RCC_PLLCFGR_PLLR) != RCC_OscInitStruct->PLL.PLLR))
 8001640:	0f52      	lsrs	r2, r2, #29
 8001642:	0752      	lsls	r2, r2, #29
 8001644:	6b63      	ldr	r3, [r4, #52]	; 0x34
            (READ_BIT(temp_pllckcfg, RCC_PLLCFGR_PLLQ) != RCC_OscInitStruct->PLL.PLLQ) ||
 8001646:	429a      	cmp	r2, r3
 8001648:	d11a      	bne.n	8001680 <HAL_RCC_OscConfig+0x4a0>
  return HAL_OK;
 800164a:	2000      	movs	r0, #0
 800164c:	e000      	b.n	8001650 <HAL_RCC_OscConfig+0x470>
    return HAL_ERROR;
 800164e:	2001      	movs	r0, #1
}
 8001650:	b002      	add	sp, #8
 8001652:	bd70      	pop	{r4, r5, r6, pc}
        return HAL_ERROR;
 8001654:	2001      	movs	r0, #1
 8001656:	e7fb      	b.n	8001650 <HAL_RCC_OscConfig+0x470>
        return HAL_ERROR;
 8001658:	2001      	movs	r0, #1
 800165a:	e7f9      	b.n	8001650 <HAL_RCC_OscConfig+0x470>
          return HAL_ERROR;
 800165c:	2001      	movs	r0, #1
 800165e:	e7f7      	b.n	8001650 <HAL_RCC_OscConfig+0x470>
        return HAL_ERROR;
 8001660:	2001      	movs	r0, #1
 8001662:	e7f5      	b.n	8001650 <HAL_RCC_OscConfig+0x470>
  return HAL_OK;
 8001664:	2000      	movs	r0, #0
 8001666:	e7f3      	b.n	8001650 <HAL_RCC_OscConfig+0x470>
        return HAL_ERROR;
 8001668:	2001      	movs	r0, #1
 800166a:	e7f1      	b.n	8001650 <HAL_RCC_OscConfig+0x470>
          return HAL_ERROR;
 800166c:	2001      	movs	r0, #1
 800166e:	e7ef      	b.n	8001650 <HAL_RCC_OscConfig+0x470>
 8001670:	2001      	movs	r0, #1
 8001672:	e7ed      	b.n	8001650 <HAL_RCC_OscConfig+0x470>
 8001674:	2001      	movs	r0, #1
 8001676:	e7eb      	b.n	8001650 <HAL_RCC_OscConfig+0x470>
 8001678:	2001      	movs	r0, #1
 800167a:	e7e9      	b.n	8001650 <HAL_RCC_OscConfig+0x470>
 800167c:	2001      	movs	r0, #1
 800167e:	e7e7      	b.n	8001650 <HAL_RCC_OscConfig+0x470>
 8001680:	2001      	movs	r0, #1
 8001682:	e7e5      	b.n	8001650 <HAL_RCC_OscConfig+0x470>
 8001684:	40021000 	.word	0x40021000
 8001688:	feffffff 	.word	0xfeffffff
 800168c:	efffffff 	.word	0xefffffff
 8001690:	11c1808c 	.word	0x11c1808c
 8001694:	eefefffc 	.word	0xeefefffc

08001698 <HAL_RCC_GetSysClockFreq>:
  *
  *
  * @retval SYSCLK frequency
  */
uint32_t HAL_RCC_GetSysClockFreq(void)
{
 8001698:	b510      	push	{r4, lr}
  uint32_t pllvco, pllsource, pllr, pllm, hsidiv;
  uint32_t sysclockfreq;

  if (__HAL_RCC_GET_SYSCLK_SOURCE() == RCC_SYSCLKSOURCE_STATUS_HSI)
 800169a:	4b2a      	ldr	r3, [pc, #168]	; (8001744 <HAL_RCC_GetSysClockFreq+0xac>)
 800169c:	689b      	ldr	r3, [r3, #8]
 800169e:	2238      	movs	r2, #56	; 0x38
 80016a0:	421a      	tst	r2, r3
 80016a2:	d107      	bne.n	80016b4 <HAL_RCC_GetSysClockFreq+0x1c>
  {
    /* HSISYS can be derived for HSI16 */
    hsidiv = (1UL << ((READ_BIT(RCC->CR, RCC_CR_HSIDIV)) >> RCC_CR_HSIDIV_Pos));
 80016a4:	4b27      	ldr	r3, [pc, #156]	; (8001744 <HAL_RCC_GetSysClockFreq+0xac>)
 80016a6:	681a      	ldr	r2, [r3, #0]
 80016a8:	0ad2      	lsrs	r2, r2, #11
 80016aa:	2307      	movs	r3, #7
 80016ac:	4013      	ands	r3, r2

    /* HSI used as system clock source */
    sysclockfreq = (HSI_VALUE / hsidiv);
 80016ae:	4826      	ldr	r0, [pc, #152]	; (8001748 <HAL_RCC_GetSysClockFreq+0xb0>)
 80016b0:	40d8      	lsrs	r0, r3
  {
    sysclockfreq = 0U;
  }

  return sysclockfreq;
}
 80016b2:	bd10      	pop	{r4, pc}
  else if (__HAL_RCC_GET_SYSCLK_SOURCE() == RCC_SYSCLKSOURCE_STATUS_HSE)
 80016b4:	4b23      	ldr	r3, [pc, #140]	; (8001744 <HAL_RCC_GetSysClockFreq+0xac>)
 80016b6:	689a      	ldr	r2, [r3, #8]
 80016b8:	2338      	movs	r3, #56	; 0x38
 80016ba:	4013      	ands	r3, r2
 80016bc:	2b08      	cmp	r3, #8
 80016be:	d03b      	beq.n	8001738 <HAL_RCC_GetSysClockFreq+0xa0>
  else if (__HAL_RCC_GET_SYSCLK_SOURCE() == RCC_SYSCLKSOURCE_STATUS_PLLCLK)
 80016c0:	4b20      	ldr	r3, [pc, #128]	; (8001744 <HAL_RCC_GetSysClockFreq+0xac>)
 80016c2:	689a      	ldr	r2, [r3, #8]
 80016c4:	2338      	movs	r3, #56	; 0x38
 80016c6:	4013      	ands	r3, r2
 80016c8:	2b10      	cmp	r3, #16
 80016ca:	d00d      	beq.n	80016e8 <HAL_RCC_GetSysClockFreq+0x50>
  else if (__HAL_RCC_GET_SYSCLK_SOURCE() == RCC_SYSCLKSOURCE_STATUS_LSE)
 80016cc:	4b1d      	ldr	r3, [pc, #116]	; (8001744 <HAL_RCC_GetSysClockFreq+0xac>)
 80016ce:	689a      	ldr	r2, [r3, #8]
 80016d0:	2338      	movs	r3, #56	; 0x38
 80016d2:	4013      	ands	r3, r2
 80016d4:	2b20      	cmp	r3, #32
 80016d6:	d031      	beq.n	800173c <HAL_RCC_GetSysClockFreq+0xa4>
  else if (__HAL_RCC_GET_SYSCLK_SOURCE() == RCC_SYSCLKSOURCE_STATUS_LSI)
 80016d8:	4b1a      	ldr	r3, [pc, #104]	; (8001744 <HAL_RCC_GetSysClockFreq+0xac>)
 80016da:	689a      	ldr	r2, [r3, #8]
 80016dc:	2338      	movs	r3, #56	; 0x38
 80016de:	4013      	ands	r3, r2
 80016e0:	2b18      	cmp	r3, #24
 80016e2:	d026      	beq.n	8001732 <HAL_RCC_GetSysClockFreq+0x9a>
    sysclockfreq = 0U;
 80016e4:	2000      	movs	r0, #0
  return sysclockfreq;
 80016e6:	e7e4      	b.n	80016b2 <HAL_RCC_GetSysClockFreq+0x1a>
    pllsource = (RCC->PLLCFGR & RCC_PLLCFGR_PLLSRC);
 80016e8:	4a16      	ldr	r2, [pc, #88]	; (8001744 <HAL_RCC_GetSysClockFreq+0xac>)
 80016ea:	68d1      	ldr	r1, [r2, #12]
 80016ec:	3b0d      	subs	r3, #13
 80016ee:	400b      	ands	r3, r1
    pllm = ((RCC->PLLCFGR & RCC_PLLCFGR_PLLM) >> RCC_PLLCFGR_PLLM_Pos) + 1U ;
 80016f0:	68d2      	ldr	r2, [r2, #12]
 80016f2:	0912      	lsrs	r2, r2, #4
 80016f4:	2107      	movs	r1, #7
 80016f6:	4011      	ands	r1, r2
 80016f8:	3101      	adds	r1, #1
    switch (pllsource)
 80016fa:	2b03      	cmp	r3, #3
 80016fc:	d00f      	beq.n	800171e <HAL_RCC_GetSysClockFreq+0x86>
        pllvco = (HSI_VALUE / pllm) * ((RCC->PLLCFGR & RCC_PLLCFGR_PLLN) >> RCC_PLLCFGR_PLLN_Pos) ;
 80016fe:	4812      	ldr	r0, [pc, #72]	; (8001748 <HAL_RCC_GetSysClockFreq+0xb0>)
 8001700:	f7fe fd00 	bl	8000104 <__udivsi3>
 8001704:	4b0f      	ldr	r3, [pc, #60]	; (8001744 <HAL_RCC_GetSysClockFreq+0xac>)
 8001706:	68da      	ldr	r2, [r3, #12]
 8001708:	0a12      	lsrs	r2, r2, #8
 800170a:	237f      	movs	r3, #127	; 0x7f
 800170c:	4013      	ands	r3, r2
 800170e:	4358      	muls	r0, r3
    pllr = (((RCC->PLLCFGR & RCC_PLLCFGR_PLLR) >> RCC_PLLCFGR_PLLR_Pos) + 1U);
 8001710:	4b0c      	ldr	r3, [pc, #48]	; (8001744 <HAL_RCC_GetSysClockFreq+0xac>)
 8001712:	68d9      	ldr	r1, [r3, #12]
 8001714:	0f49      	lsrs	r1, r1, #29
 8001716:	3101      	adds	r1, #1
    sysclockfreq = pllvco / pllr;
 8001718:	f7fe fcf4 	bl	8000104 <__udivsi3>
 800171c:	e7c9      	b.n	80016b2 <HAL_RCC_GetSysClockFreq+0x1a>
        pllvco = (HSE_VALUE / pllm) * ((RCC->PLLCFGR & RCC_PLLCFGR_PLLN) >> RCC_PLLCFGR_PLLN_Pos);
 800171e:	480b      	ldr	r0, [pc, #44]	; (800174c <HAL_RCC_GetSysClockFreq+0xb4>)
 8001720:	f7fe fcf0 	bl	8000104 <__udivsi3>
 8001724:	4b07      	ldr	r3, [pc, #28]	; (8001744 <HAL_RCC_GetSysClockFreq+0xac>)
 8001726:	68da      	ldr	r2, [r3, #12]
 8001728:	0a12      	lsrs	r2, r2, #8
 800172a:	237f      	movs	r3, #127	; 0x7f
 800172c:	4013      	ands	r3, r2
 800172e:	4358      	muls	r0, r3
        break;
 8001730:	e7ee      	b.n	8001710 <HAL_RCC_GetSysClockFreq+0x78>
    sysclockfreq = LSI_VALUE;
 8001732:	20fa      	movs	r0, #250	; 0xfa
 8001734:	01c0      	lsls	r0, r0, #7
 8001736:	e7bc      	b.n	80016b2 <HAL_RCC_GetSysClockFreq+0x1a>
    sysclockfreq = HSE_VALUE;
 8001738:	4804      	ldr	r0, [pc, #16]	; (800174c <HAL_RCC_GetSysClockFreq+0xb4>)
 800173a:	e7ba      	b.n	80016b2 <HAL_RCC_GetSysClockFreq+0x1a>
    sysclockfreq = LSE_VALUE;
 800173c:	2080      	movs	r0, #128	; 0x80
 800173e:	0200      	lsls	r0, r0, #8
 8001740:	e7b7      	b.n	80016b2 <HAL_RCC_GetSysClockFreq+0x1a>
 8001742:	46c0      	nop			; (mov r8, r8)
 8001744:	40021000 	.word	0x40021000
 8001748:	00f42400 	.word	0x00f42400
 800174c:	007a1200 	.word	0x007a1200

08001750 <HAL_RCC_ClockConfig>:
{
 8001750:	b570      	push	{r4, r5, r6, lr}
 8001752:	0004      	movs	r4, r0
 8001754:	000d      	movs	r5, r1
  if (RCC_ClkInitStruct == NULL)
 8001756:	2800      	cmp	r0, #0
 8001758:	d100      	bne.n	800175c <HAL_RCC_ClockConfig+0xc>
 800175a:	e0aa      	b.n	80018b2 <HAL_RCC_ClockConfig+0x162>
  if (FLatency > __HAL_FLASH_GET_LATENCY())
 800175c:	4b57      	ldr	r3, [pc, #348]	; (80018bc <HAL_RCC_ClockConfig+0x16c>)
 800175e:	681a      	ldr	r2, [r3, #0]
 8001760:	2307      	movs	r3, #7
 8001762:	4013      	ands	r3, r2
 8001764:	428b      	cmp	r3, r1
 8001766:	d321      	bcc.n	80017ac <HAL_RCC_ClockConfig+0x5c>
  if (((RCC_ClkInitStruct->ClockType) & RCC_CLOCKTYPE_HCLK) == RCC_CLOCKTYPE_HCLK)
 8001768:	6823      	ldr	r3, [r4, #0]
 800176a:	079a      	lsls	r2, r3, #30
 800176c:	d50e      	bpl.n	800178c <HAL_RCC_ClockConfig+0x3c>
    if (((RCC_ClkInitStruct->ClockType) & RCC_CLOCKTYPE_PCLK1) == RCC_CLOCKTYPE_PCLK1)
 800176e:	075b      	lsls	r3, r3, #29
 8001770:	d505      	bpl.n	800177e <HAL_RCC_ClockConfig+0x2e>
      MODIFY_REG(RCC->CFGR, RCC_CFGR_PPRE, RCC_HCLK_DIV16);
 8001772:	4a53      	ldr	r2, [pc, #332]	; (80018c0 <HAL_RCC_ClockConfig+0x170>)
 8001774:	6891      	ldr	r1, [r2, #8]
 8001776:	23e0      	movs	r3, #224	; 0xe0
 8001778:	01db      	lsls	r3, r3, #7
 800177a:	430b      	orrs	r3, r1
 800177c:	6093      	str	r3, [r2, #8]
    MODIFY_REG(RCC->CFGR, RCC_CFGR_HPRE, RCC_ClkInitStruct->AHBCLKDivider);
 800177e:	4a50      	ldr	r2, [pc, #320]	; (80018c0 <HAL_RCC_ClockConfig+0x170>)
 8001780:	6893      	ldr	r3, [r2, #8]
 8001782:	4950      	ldr	r1, [pc, #320]	; (80018c4 <HAL_RCC_ClockConfig+0x174>)
 8001784:	400b      	ands	r3, r1
 8001786:	68a1      	ldr	r1, [r4, #8]
 8001788:	430b      	orrs	r3, r1
 800178a:	6093      	str	r3, [r2, #8]
  if (((RCC_ClkInitStruct->ClockType) & RCC_CLOCKTYPE_SYSCLK) == RCC_CLOCKTYPE_SYSCLK)
 800178c:	6823      	ldr	r3, [r4, #0]
 800178e:	07db      	lsls	r3, r3, #31
 8001790:	d554      	bpl.n	800183c <HAL_RCC_ClockConfig+0xec>
    if (RCC_ClkInitStruct->SYSCLKSource == RCC_SYSCLKSOURCE_HSE)
 8001792:	6863      	ldr	r3, [r4, #4]
 8001794:	2b01      	cmp	r3, #1
 8001796:	d020      	beq.n	80017da <HAL_RCC_ClockConfig+0x8a>
    else if (RCC_ClkInitStruct->SYSCLKSource == RCC_SYSCLKSOURCE_PLLCLK)
 8001798:	2b02      	cmp	r3, #2
 800179a:	d03b      	beq.n	8001814 <HAL_RCC_ClockConfig+0xc4>
    else if (RCC_ClkInitStruct->SYSCLKSource == RCC_SYSCLKSOURCE_HSI)
 800179c:	2b00      	cmp	r3, #0
 800179e:	d13f      	bne.n	8001820 <HAL_RCC_ClockConfig+0xd0>
      if (READ_BIT(RCC->CR, RCC_CR_HSIRDY) == 0U)
 80017a0:	4a47      	ldr	r2, [pc, #284]	; (80018c0 <HAL_RCC_ClockConfig+0x170>)
 80017a2:	6812      	ldr	r2, [r2, #0]
 80017a4:	0552      	lsls	r2, r2, #21
 80017a6:	d41c      	bmi.n	80017e2 <HAL_RCC_ClockConfig+0x92>
        return HAL_ERROR;
 80017a8:	2001      	movs	r0, #1
 80017aa:	e06a      	b.n	8001882 <HAL_RCC_ClockConfig+0x132>
    __HAL_FLASH_SET_LATENCY(FLatency);
 80017ac:	4a43      	ldr	r2, [pc, #268]	; (80018bc <HAL_RCC_ClockConfig+0x16c>)
 80017ae:	6813      	ldr	r3, [r2, #0]
 80017b0:	2107      	movs	r1, #7
 80017b2:	438b      	bics	r3, r1
 80017b4:	432b      	orrs	r3, r5
 80017b6:	6013      	str	r3, [r2, #0]
    tickstart = HAL_GetTick();
 80017b8:	f7ff fa1c 	bl	8000bf4 <HAL_GetTick>
 80017bc:	0006      	movs	r6, r0
    while ((FLASH->ACR & FLASH_ACR_LATENCY) != FLatency)
 80017be:	4b3f      	ldr	r3, [pc, #252]	; (80018bc <HAL_RCC_ClockConfig+0x16c>)
 80017c0:	681a      	ldr	r2, [r3, #0]
 80017c2:	2307      	movs	r3, #7
 80017c4:	4013      	ands	r3, r2
 80017c6:	42ab      	cmp	r3, r5
 80017c8:	d0ce      	beq.n	8001768 <HAL_RCC_ClockConfig+0x18>
      if ((HAL_GetTick() - tickstart) > CLOCKSWITCH_TIMEOUT_VALUE)
 80017ca:	f7ff fa13 	bl	8000bf4 <HAL_GetTick>
 80017ce:	1b80      	subs	r0, r0, r6
 80017d0:	4a3d      	ldr	r2, [pc, #244]	; (80018c8 <HAL_RCC_ClockConfig+0x178>)
 80017d2:	4290      	cmp	r0, r2
 80017d4:	d9f3      	bls.n	80017be <HAL_RCC_ClockConfig+0x6e>
        return HAL_TIMEOUT;
 80017d6:	2003      	movs	r0, #3
 80017d8:	e053      	b.n	8001882 <HAL_RCC_ClockConfig+0x132>
      if (READ_BIT(RCC->CR, RCC_CR_HSERDY) == 0U)
 80017da:	4a39      	ldr	r2, [pc, #228]	; (80018c0 <HAL_RCC_ClockConfig+0x170>)
 80017dc:	6812      	ldr	r2, [r2, #0]
 80017de:	0392      	lsls	r2, r2, #14
 80017e0:	d569      	bpl.n	80018b6 <HAL_RCC_ClockConfig+0x166>
    MODIFY_REG(RCC->CFGR, RCC_CFGR_SW, RCC_ClkInitStruct->SYSCLKSource);
 80017e2:	4937      	ldr	r1, [pc, #220]	; (80018c0 <HAL_RCC_ClockConfig+0x170>)
 80017e4:	688a      	ldr	r2, [r1, #8]
 80017e6:	2007      	movs	r0, #7
 80017e8:	4382      	bics	r2, r0
 80017ea:	4313      	orrs	r3, r2
 80017ec:	608b      	str	r3, [r1, #8]
    tickstart = HAL_GetTick();
 80017ee:	f7ff fa01 	bl	8000bf4 <HAL_GetTick>
 80017f2:	0006      	movs	r6, r0
    while (__HAL_RCC_GET_SYSCLK_SOURCE() != (RCC_ClkInitStruct->SYSCLKSource << RCC_CFGR_SWS_Pos))
 80017f4:	4b32      	ldr	r3, [pc, #200]	; (80018c0 <HAL_RCC_ClockConfig+0x170>)
 80017f6:	689b      	ldr	r3, [r3, #8]
 80017f8:	2238      	movs	r2, #56	; 0x38
 80017fa:	401a      	ands	r2, r3
 80017fc:	6863      	ldr	r3, [r4, #4]
 80017fe:	00db      	lsls	r3, r3, #3
 8001800:	429a      	cmp	r2, r3
 8001802:	d01b      	beq.n	800183c <HAL_RCC_ClockConfig+0xec>
      if ((HAL_GetTick() - tickstart) > CLOCKSWITCH_TIMEOUT_VALUE)
 8001804:	f7ff f9f6 	bl	8000bf4 <HAL_GetTick>
 8001808:	1b80      	subs	r0, r0, r6
 800180a:	4b2f      	ldr	r3, [pc, #188]	; (80018c8 <HAL_RCC_ClockConfig+0x178>)
 800180c:	4298      	cmp	r0, r3
 800180e:	d9f1      	bls.n	80017f4 <HAL_RCC_ClockConfig+0xa4>
        return HAL_TIMEOUT;
 8001810:	2003      	movs	r0, #3
 8001812:	e036      	b.n	8001882 <HAL_RCC_ClockConfig+0x132>
      if (READ_BIT(RCC->CR, RCC_CR_PLLRDY) == 0U)
 8001814:	4a2a      	ldr	r2, [pc, #168]	; (80018c0 <HAL_RCC_ClockConfig+0x170>)
 8001816:	6812      	ldr	r2, [r2, #0]
 8001818:	0192      	lsls	r2, r2, #6
 800181a:	d4e2      	bmi.n	80017e2 <HAL_RCC_ClockConfig+0x92>
        return HAL_ERROR;
 800181c:	2001      	movs	r0, #1
 800181e:	e030      	b.n	8001882 <HAL_RCC_ClockConfig+0x132>
    else if (RCC_ClkInitStruct->SYSCLKSource == RCC_SYSCLKSOURCE_LSI)
 8001820:	2b03      	cmp	r3, #3
 8001822:	d005      	beq.n	8001830 <HAL_RCC_ClockConfig+0xe0>
      if (READ_BIT(RCC->BDCR, RCC_BDCR_LSERDY) == 0U)
 8001824:	4a26      	ldr	r2, [pc, #152]	; (80018c0 <HAL_RCC_ClockConfig+0x170>)
 8001826:	6dd2      	ldr	r2, [r2, #92]	; 0x5c
 8001828:	0792      	lsls	r2, r2, #30
 800182a:	d4da      	bmi.n	80017e2 <HAL_RCC_ClockConfig+0x92>
        return HAL_ERROR;
 800182c:	2001      	movs	r0, #1
 800182e:	e028      	b.n	8001882 <HAL_RCC_ClockConfig+0x132>
      if (READ_BIT(RCC->CSR, RCC_CSR_LSIRDY) == 0U)
 8001830:	4a23      	ldr	r2, [pc, #140]	; (80018c0 <HAL_RCC_ClockConfig+0x170>)
 8001832:	6e12      	ldr	r2, [r2, #96]	; 0x60
 8001834:	0792      	lsls	r2, r2, #30
 8001836:	d4d4      	bmi.n	80017e2 <HAL_RCC_ClockConfig+0x92>
        return HAL_ERROR;
 8001838:	2001      	movs	r0, #1
 800183a:	e022      	b.n	8001882 <HAL_RCC_ClockConfig+0x132>
  if (FLatency < __HAL_FLASH_GET_LATENCY())
 800183c:	4b1f      	ldr	r3, [pc, #124]	; (80018bc <HAL_RCC_ClockConfig+0x16c>)
 800183e:	681a      	ldr	r2, [r3, #0]
 8001840:	2307      	movs	r3, #7
 8001842:	4013      	ands	r3, r2
 8001844:	42ab      	cmp	r3, r5
 8001846:	d81d      	bhi.n	8001884 <HAL_RCC_ClockConfig+0x134>
  if (((RCC_ClkInitStruct->ClockType) & RCC_CLOCKTYPE_PCLK1) == RCC_CLOCKTYPE_PCLK1)
 8001848:	6823      	ldr	r3, [r4, #0]
 800184a:	075b      	lsls	r3, r3, #29
 800184c:	d506      	bpl.n	800185c <HAL_RCC_ClockConfig+0x10c>
    MODIFY_REG(RCC->CFGR, RCC_CFGR_PPRE, RCC_ClkInitStruct->APB1CLKDivider);
 800184e:	4a1c      	ldr	r2, [pc, #112]	; (80018c0 <HAL_RCC_ClockConfig+0x170>)
 8001850:	6893      	ldr	r3, [r2, #8]
 8001852:	491e      	ldr	r1, [pc, #120]	; (80018cc <HAL_RCC_ClockConfig+0x17c>)
 8001854:	400b      	ands	r3, r1
 8001856:	68e1      	ldr	r1, [r4, #12]
 8001858:	430b      	orrs	r3, r1
 800185a:	6093      	str	r3, [r2, #8]
  SystemCoreClock = (HAL_RCC_GetSysClockFreq() >> ((AHBPrescTable[(RCC->CFGR & RCC_CFGR_HPRE) >> RCC_CFGR_HPRE_Pos]) & 0x1FU));
 800185c:	f7ff ff1c 	bl	8001698 <HAL_RCC_GetSysClockFreq>
 8001860:	4b17      	ldr	r3, [pc, #92]	; (80018c0 <HAL_RCC_ClockConfig+0x170>)
 8001862:	689a      	ldr	r2, [r3, #8]
 8001864:	0a12      	lsrs	r2, r2, #8
 8001866:	230f      	movs	r3, #15
 8001868:	4013      	ands	r3, r2
 800186a:	009b      	lsls	r3, r3, #2
 800186c:	4a18      	ldr	r2, [pc, #96]	; (80018d0 <HAL_RCC_ClockConfig+0x180>)
 800186e:	589a      	ldr	r2, [r3, r2]
 8001870:	231f      	movs	r3, #31
 8001872:	4013      	ands	r3, r2
 8001874:	40d8      	lsrs	r0, r3
 8001876:	4b17      	ldr	r3, [pc, #92]	; (80018d4 <HAL_RCC_ClockConfig+0x184>)
 8001878:	6018      	str	r0, [r3, #0]
  return HAL_InitTick(uwTickPrio);
 800187a:	4b17      	ldr	r3, [pc, #92]	; (80018d8 <HAL_RCC_ClockConfig+0x188>)
 800187c:	6818      	ldr	r0, [r3, #0]
 800187e:	f7ff f96d 	bl	8000b5c <HAL_InitTick>
}
 8001882:	bd70      	pop	{r4, r5, r6, pc}
    __HAL_FLASH_SET_LATENCY(FLatency);
 8001884:	4a0d      	ldr	r2, [pc, #52]	; (80018bc <HAL_RCC_ClockConfig+0x16c>)
 8001886:	6813      	ldr	r3, [r2, #0]
 8001888:	2107      	movs	r1, #7
 800188a:	438b      	bics	r3, r1
 800188c:	432b      	orrs	r3, r5
 800188e:	6013      	str	r3, [r2, #0]
    tickstart = HAL_GetTick();
 8001890:	f7ff f9b0 	bl	8000bf4 <HAL_GetTick>
 8001894:	0006      	movs	r6, r0
    while ((FLASH->ACR & FLASH_ACR_LATENCY) != FLatency)
 8001896:	4b09      	ldr	r3, [pc, #36]	; (80018bc <HAL_RCC_ClockConfig+0x16c>)
 8001898:	681a      	ldr	r2, [r3, #0]
 800189a:	2307      	movs	r3, #7
 800189c:	4013      	ands	r3, r2
 800189e:	42ab      	cmp	r3, r5
 80018a0:	d0d2      	beq.n	8001848 <HAL_RCC_ClockConfig+0xf8>
      if ((HAL_GetTick() - tickstart) > CLOCKSWITCH_TIMEOUT_VALUE)
 80018a2:	f7ff f9a7 	bl	8000bf4 <HAL_GetTick>
 80018a6:	1b80      	subs	r0, r0, r6
 80018a8:	4b07      	ldr	r3, [pc, #28]	; (80018c8 <HAL_RCC_ClockConfig+0x178>)
 80018aa:	4298      	cmp	r0, r3
 80018ac:	d9f3      	bls.n	8001896 <HAL_RCC_ClockConfig+0x146>
        return HAL_TIMEOUT;
 80018ae:	2003      	movs	r0, #3
 80018b0:	e7e7      	b.n	8001882 <HAL_RCC_ClockConfig+0x132>
    return HAL_ERROR;
 80018b2:	2001      	movs	r0, #1
 80018b4:	e7e5      	b.n	8001882 <HAL_RCC_ClockConfig+0x132>
        return HAL_ERROR;
 80018b6:	2001      	movs	r0, #1
 80018b8:	e7e3      	b.n	8001882 <HAL_RCC_ClockConfig+0x132>
 80018ba:	46c0      	nop			; (mov r8, r8)
 80018bc:	40022000 	.word	0x40022000
 80018c0:	40021000 	.word	0x40021000
 80018c4:	fffff0ff 	.word	0xfffff0ff
 80018c8:	00001388 	.word	0x00001388
 80018cc:	ffff8fff 	.word	0xffff8fff
 80018d0:	08002af0 	.word	0x08002af0
 80018d4:	20000000 	.word	0x20000000
 80018d8:	20000008 	.word	0x20000008

080018dc <HAL_RCCEx_PeriphCLKConfig>:
  *         the RTC clock source: in this case the access to Backup domain is enabled.
  *
  * @retval HAL status
  */
HAL_StatusTypeDef HAL_RCCEx_PeriphCLKConfig(RCC_PeriphCLKInitTypeDef  *PeriphClkInit)
{
 80018dc:	b5f0      	push	{r4, r5, r6, r7, lr}
 80018de:	b083      	sub	sp, #12
 80018e0:	0004      	movs	r4, r0

  /* Check the parameters */
  assert_param(IS_RCC_PERIPHCLOCK(PeriphClkInit->PeriphClockSelection));

  /*-------------------------- RTC clock source configuration ----------------------*/
  if ((PeriphClkInit->PeriphClockSelection & RCC_PERIPHCLK_RTC) == RCC_PERIPHCLK_RTC)
 80018e2:	6803      	ldr	r3, [r0, #0]
 80018e4:	039b      	lsls	r3, r3, #14
 80018e6:	d562      	bpl.n	80019ae <HAL_RCCEx_PeriphCLKConfig+0xd2>

    /* Check for RTC Parameters used to output RTCCLK */
    assert_param(IS_RCC_RTCCLKSOURCE(PeriphClkInit->RTCClockSelection));

    /* Enable Power Clock */
    if (__HAL_RCC_PWR_IS_CLK_DISABLED())
 80018e8:	4b6d      	ldr	r3, [pc, #436]	; (8001aa0 <HAL_RCCEx_PeriphCLKConfig+0x1c4>)
 80018ea:	6bdb      	ldr	r3, [r3, #60]	; 0x3c
 80018ec:	00db      	lsls	r3, r3, #3
 80018ee:	d41e      	bmi.n	800192e <HAL_RCCEx_PeriphCLKConfig+0x52>
    {
      __HAL_RCC_PWR_CLK_ENABLE();
 80018f0:	4a6b      	ldr	r2, [pc, #428]	; (8001aa0 <HAL_RCCEx_PeriphCLKConfig+0x1c4>)
 80018f2:	6bd1      	ldr	r1, [r2, #60]	; 0x3c
 80018f4:	2080      	movs	r0, #128	; 0x80
 80018f6:	0540      	lsls	r0, r0, #21
 80018f8:	4301      	orrs	r1, r0
 80018fa:	63d1      	str	r1, [r2, #60]	; 0x3c
 80018fc:	6bd3      	ldr	r3, [r2, #60]	; 0x3c
 80018fe:	4003      	ands	r3, r0
 8001900:	9301      	str	r3, [sp, #4]
 8001902:	9b01      	ldr	r3, [sp, #4]
      pwrclkchanged = SET;
 8001904:	2601      	movs	r6, #1
    }

    /* Enable write access to Backup domain */
    SET_BIT(PWR->CR1, PWR_CR1_DBP);
 8001906:	4a67      	ldr	r2, [pc, #412]	; (8001aa4 <HAL_RCCEx_PeriphCLKConfig+0x1c8>)
 8001908:	6811      	ldr	r1, [r2, #0]
 800190a:	2380      	movs	r3, #128	; 0x80
 800190c:	005b      	lsls	r3, r3, #1
 800190e:	430b      	orrs	r3, r1
 8001910:	6013      	str	r3, [r2, #0]

    /* Wait for Backup domain Write protection disable */
    tickstart = HAL_GetTick();
 8001912:	f7ff f96f 	bl	8000bf4 <HAL_GetTick>
 8001916:	0005      	movs	r5, r0

    while ((PWR->CR1 & PWR_CR1_DBP) == 0U)
 8001918:	4b62      	ldr	r3, [pc, #392]	; (8001aa4 <HAL_RCCEx_PeriphCLKConfig+0x1c8>)
 800191a:	681b      	ldr	r3, [r3, #0]
 800191c:	05db      	lsls	r3, r3, #23
 800191e:	d408      	bmi.n	8001932 <HAL_RCCEx_PeriphCLKConfig+0x56>
    {
      if ((HAL_GetTick() - tickstart) > RCC_DBP_TIMEOUT_VALUE)
 8001920:	f7ff f968 	bl	8000bf4 <HAL_GetTick>
 8001924:	1b40      	subs	r0, r0, r5
 8001926:	2802      	cmp	r0, #2
 8001928:	d9f6      	bls.n	8001918 <HAL_RCCEx_PeriphCLKConfig+0x3c>
      {
        ret = HAL_TIMEOUT;
 800192a:	2503      	movs	r5, #3
 800192c:	e002      	b.n	8001934 <HAL_RCCEx_PeriphCLKConfig+0x58>
    FlagStatus       pwrclkchanged = RESET;
 800192e:	2600      	movs	r6, #0
 8001930:	e7e9      	b.n	8001906 <HAL_RCCEx_PeriphCLKConfig+0x2a>
  HAL_StatusTypeDef ret    = HAL_OK;   /* Intermediate status */
 8001932:	2500      	movs	r5, #0
        break;
      }
    }

    if (ret == HAL_OK)
 8001934:	2d00      	cmp	r5, #0
 8001936:	d123      	bne.n	8001980 <HAL_RCCEx_PeriphCLKConfig+0xa4>
    {
      /* Reset the Backup domain only if the RTC Clock source selection is modified from default */
      tmpregister = READ_BIT(RCC->BDCR, RCC_BDCR_RTCSEL);
 8001938:	4b59      	ldr	r3, [pc, #356]	; (8001aa0 <HAL_RCCEx_PeriphCLKConfig+0x1c4>)
 800193a:	6dd9      	ldr	r1, [r3, #92]	; 0x5c
 800193c:	22c0      	movs	r2, #192	; 0xc0
 800193e:	0092      	lsls	r2, r2, #2
 8001940:	000b      	movs	r3, r1
 8001942:	4013      	ands	r3, r2

      /* Reset the Backup domain only if the RTC Clock source selection is modified */
      if ((tmpregister != RCC_RTCCLKSOURCE_NONE) && (tmpregister != PeriphClkInit->RTCClockSelection))
 8001944:	4211      	tst	r1, r2
 8001946:	d010      	beq.n	800196a <HAL_RCCEx_PeriphCLKConfig+0x8e>
 8001948:	6a62      	ldr	r2, [r4, #36]	; 0x24
 800194a:	429a      	cmp	r2, r3
 800194c:	d00d      	beq.n	800196a <HAL_RCCEx_PeriphCLKConfig+0x8e>
      {
        /* Store the content of BDCR register before the reset of Backup Domain */
        tmpregister = READ_BIT(RCC->BDCR, ~(RCC_BDCR_RTCSEL));
 800194e:	4a54      	ldr	r2, [pc, #336]	; (8001aa0 <HAL_RCCEx_PeriphCLKConfig+0x1c4>)
 8001950:	6dd3      	ldr	r3, [r2, #92]	; 0x5c
 8001952:	4955      	ldr	r1, [pc, #340]	; (8001aa8 <HAL_RCCEx_PeriphCLKConfig+0x1cc>)
 8001954:	400b      	ands	r3, r1
        /* RTC Clock selection can be changed only if the Backup Domain is reset */
        __HAL_RCC_BACKUPRESET_FORCE();
 8001956:	6dd0      	ldr	r0, [r2, #92]	; 0x5c
 8001958:	2180      	movs	r1, #128	; 0x80
 800195a:	0249      	lsls	r1, r1, #9
 800195c:	4301      	orrs	r1, r0
 800195e:	65d1      	str	r1, [r2, #92]	; 0x5c
        __HAL_RCC_BACKUPRESET_RELEASE();
 8001960:	6dd1      	ldr	r1, [r2, #92]	; 0x5c
 8001962:	4852      	ldr	r0, [pc, #328]	; (8001aac <HAL_RCCEx_PeriphCLKConfig+0x1d0>)
 8001964:	4001      	ands	r1, r0
 8001966:	65d1      	str	r1, [r2, #92]	; 0x5c
        /* Restore the Content of BDCR register */
        RCC->BDCR = tmpregister;
 8001968:	65d3      	str	r3, [r2, #92]	; 0x5c
      }

      /* Wait for LSE reactivation if LSE was enable prior to Backup Domain reset */
      if (HAL_IS_BIT_SET(tmpregister, RCC_BDCR_LSEON))
 800196a:	07db      	lsls	r3, r3, #31
 800196c:	d410      	bmi.n	8001990 <HAL_RCCEx_PeriphCLKConfig+0xb4>
            break;
          }
        }
      }

      if (ret == HAL_OK)
 800196e:	2d00      	cmp	r5, #0
 8001970:	d106      	bne.n	8001980 <HAL_RCCEx_PeriphCLKConfig+0xa4>
      {
        /* Apply new RTC clock source selection */
        __HAL_RCC_RTC_CONFIG(PeriphClkInit->RTCClockSelection);
 8001972:	4a4b      	ldr	r2, [pc, #300]	; (8001aa0 <HAL_RCCEx_PeriphCLKConfig+0x1c4>)
 8001974:	6dd3      	ldr	r3, [r2, #92]	; 0x5c
 8001976:	494c      	ldr	r1, [pc, #304]	; (8001aa8 <HAL_RCCEx_PeriphCLKConfig+0x1cc>)
 8001978:	400b      	ands	r3, r1
 800197a:	6a61      	ldr	r1, [r4, #36]	; 0x24
 800197c:	430b      	orrs	r3, r1
 800197e:	65d3      	str	r3, [r2, #92]	; 0x5c
      /* set overall return value */
      status = ret;
    }

    /* Restore clock configuration if changed */
    if (pwrclkchanged == SET)
 8001980:	2e01      	cmp	r6, #1
 8001982:	d115      	bne.n	80019b0 <HAL_RCCEx_PeriphCLKConfig+0xd4>
    {
      __HAL_RCC_PWR_CLK_DISABLE();
 8001984:	4a46      	ldr	r2, [pc, #280]	; (8001aa0 <HAL_RCCEx_PeriphCLKConfig+0x1c4>)
 8001986:	6bd3      	ldr	r3, [r2, #60]	; 0x3c
 8001988:	4949      	ldr	r1, [pc, #292]	; (8001ab0 <HAL_RCCEx_PeriphCLKConfig+0x1d4>)
 800198a:	400b      	ands	r3, r1
 800198c:	63d3      	str	r3, [r2, #60]	; 0x3c
 800198e:	e00f      	b.n	80019b0 <HAL_RCCEx_PeriphCLKConfig+0xd4>
        tickstart = HAL_GetTick();
 8001990:	f7ff f930 	bl	8000bf4 <HAL_GetTick>
 8001994:	0007      	movs	r7, r0
        while (READ_BIT(RCC->BDCR, RCC_BDCR_LSERDY) == 0U)
 8001996:	4b42      	ldr	r3, [pc, #264]	; (8001aa0 <HAL_RCCEx_PeriphCLKConfig+0x1c4>)
 8001998:	6ddb      	ldr	r3, [r3, #92]	; 0x5c
 800199a:	079b      	lsls	r3, r3, #30
 800199c:	d4e7      	bmi.n	800196e <HAL_RCCEx_PeriphCLKConfig+0x92>
          if ((HAL_GetTick() - tickstart) > RCC_LSE_TIMEOUT_VALUE)
 800199e:	f7ff f929 	bl	8000bf4 <HAL_GetTick>
 80019a2:	1bc0      	subs	r0, r0, r7
 80019a4:	4b43      	ldr	r3, [pc, #268]	; (8001ab4 <HAL_RCCEx_PeriphCLKConfig+0x1d8>)
 80019a6:	4298      	cmp	r0, r3
 80019a8:	d9f5      	bls.n	8001996 <HAL_RCCEx_PeriphCLKConfig+0xba>
            ret = HAL_TIMEOUT;
 80019aa:	2503      	movs	r5, #3
 80019ac:	e7df      	b.n	800196e <HAL_RCCEx_PeriphCLKConfig+0x92>
  HAL_StatusTypeDef status = HAL_OK;   /* Final status */
 80019ae:	2500      	movs	r5, #0
    }
  }

  /*-------------------------- USART1 clock source configuration -------------------*/
  if (((PeriphClkInit->PeriphClockSelection) & RCC_PERIPHCLK_USART1) == RCC_PERIPHCLK_USART1)
 80019b0:	6823      	ldr	r3, [r4, #0]
 80019b2:	07db      	lsls	r3, r3, #31
 80019b4:	d506      	bpl.n	80019c4 <HAL_RCCEx_PeriphCLKConfig+0xe8>
  {
    /* Check the parameters */
    assert_param(IS_RCC_USART1CLKSOURCE(PeriphClkInit->Usart1ClockSelection));

    /* Configure the USART1 clock source */
    __HAL_RCC_USART1_CONFIG(PeriphClkInit->Usart1ClockSelection);
 80019b6:	4a3a      	ldr	r2, [pc, #232]	; (8001aa0 <HAL_RCCEx_PeriphCLKConfig+0x1c4>)
 80019b8:	6d53      	ldr	r3, [r2, #84]	; 0x54
 80019ba:	2103      	movs	r1, #3
 80019bc:	438b      	bics	r3, r1
 80019be:	6861      	ldr	r1, [r4, #4]
 80019c0:	430b      	orrs	r3, r1
 80019c2:	6553      	str	r3, [r2, #84]	; 0x54
  }
#endif /* RCC_CCIPR_USART3SEL */

#if defined(LPUART1)
  /*-------------------------- LPUART1 clock source configuration ------------------*/
  if (((PeriphClkInit->PeriphClockSelection) & RCC_PERIPHCLK_LPUART1) == RCC_PERIPHCLK_LPUART1)
 80019c4:	6823      	ldr	r3, [r4, #0]
 80019c6:	06db      	lsls	r3, r3, #27
 80019c8:	d506      	bpl.n	80019d8 <HAL_RCCEx_PeriphCLKConfig+0xfc>
  {
    /* Check the parameters */
    assert_param(IS_RCC_LPUART1CLKSOURCE(PeriphClkInit->Lpuart1ClockSelection));

    /* Configure the LPUART1 clock source */
    __HAL_RCC_LPUART1_CONFIG(PeriphClkInit->Lpuart1ClockSelection);
 80019ca:	4a35      	ldr	r2, [pc, #212]	; (8001aa0 <HAL_RCCEx_PeriphCLKConfig+0x1c4>)
 80019cc:	6d53      	ldr	r3, [r2, #84]	; 0x54
 80019ce:	493a      	ldr	r1, [pc, #232]	; (8001ab8 <HAL_RCCEx_PeriphCLKConfig+0x1dc>)
 80019d0:	400b      	ands	r3, r1
 80019d2:	68a1      	ldr	r1, [r4, #8]
 80019d4:	430b      	orrs	r3, r1
 80019d6:	6553      	str	r3, [r2, #84]	; 0x54
  }
#endif /* LPUART2 */

#if defined(RCC_CCIPR_LPTIM1SEL)
  /*-------------------------- LPTIM1 clock source configuration -------------------*/
  if (((PeriphClkInit->PeriphClockSelection) & RCC_PERIPHCLK_LPTIM1) == (RCC_PERIPHCLK_LPTIM1))
 80019d8:	6823      	ldr	r3, [r4, #0]
 80019da:	059b      	lsls	r3, r3, #22
 80019dc:	d506      	bpl.n	80019ec <HAL_RCCEx_PeriphCLKConfig+0x110>
  {
    assert_param(IS_RCC_LPTIM1CLKSOURCE(PeriphClkInit->Lptim1ClockSelection));
    __HAL_RCC_LPTIM1_CONFIG(PeriphClkInit->Lptim1ClockSelection);
 80019de:	4a30      	ldr	r2, [pc, #192]	; (8001aa0 <HAL_RCCEx_PeriphCLKConfig+0x1c4>)
 80019e0:	6d53      	ldr	r3, [r2, #84]	; 0x54
 80019e2:	4936      	ldr	r1, [pc, #216]	; (8001abc <HAL_RCCEx_PeriphCLKConfig+0x1e0>)
 80019e4:	400b      	ands	r3, r1
 80019e6:	6961      	ldr	r1, [r4, #20]
 80019e8:	430b      	orrs	r3, r1
 80019ea:	6553      	str	r3, [r2, #84]	; 0x54
  }
#endif /* RCC_CCIPR_LPTIM1SEL */

#if defined(RCC_CCIPR_LPTIM2SEL)
  /*-------------------------- LPTIM2 clock source configuration -------------------*/
  if (((PeriphClkInit->PeriphClockSelection) & RCC_PERIPHCLK_LPTIM2) == (RCC_PERIPHCLK_LPTIM2))
 80019ec:	6823      	ldr	r3, [r4, #0]
 80019ee:	055b      	lsls	r3, r3, #21
 80019f0:	d506      	bpl.n	8001a00 <HAL_RCCEx_PeriphCLKConfig+0x124>
  {
    assert_param(IS_RCC_LPTIM2CLKSOURCE(PeriphClkInit->Lptim2ClockSelection));
    __HAL_RCC_LPTIM2_CONFIG(PeriphClkInit->Lptim2ClockSelection);
 80019f2:	4a2b      	ldr	r2, [pc, #172]	; (8001aa0 <HAL_RCCEx_PeriphCLKConfig+0x1c4>)
 80019f4:	6d53      	ldr	r3, [r2, #84]	; 0x54
 80019f6:	4932      	ldr	r1, [pc, #200]	; (8001ac0 <HAL_RCCEx_PeriphCLKConfig+0x1e4>)
 80019f8:	400b      	ands	r3, r1
 80019fa:	69a1      	ldr	r1, [r4, #24]
 80019fc:	430b      	orrs	r3, r1
 80019fe:	6553      	str	r3, [r2, #84]	; 0x54
  }
#endif /* RCC_CCIPR_LPTIM2SEL */

  /*-------------------------- I2C1 clock source configuration ---------------------*/
  if (((PeriphClkInit->PeriphClockSelection) & RCC_PERIPHCLK_I2C1) == RCC_PERIPHCLK_I2C1)
 8001a00:	6823      	ldr	r3, [r4, #0]
 8001a02:	069b      	lsls	r3, r3, #26
 8001a04:	d506      	bpl.n	8001a14 <HAL_RCCEx_PeriphCLKConfig+0x138>
  {
    /* Check the parameters */
    assert_param(IS_RCC_I2C1CLKSOURCE(PeriphClkInit->I2c1ClockSelection));

    /* Configure the I2C1 clock source */
    __HAL_RCC_I2C1_CONFIG(PeriphClkInit->I2c1ClockSelection);
 8001a06:	4a26      	ldr	r2, [pc, #152]	; (8001aa0 <HAL_RCCEx_PeriphCLKConfig+0x1c4>)
 8001a08:	6d53      	ldr	r3, [r2, #84]	; 0x54
 8001a0a:	492e      	ldr	r1, [pc, #184]	; (8001ac4 <HAL_RCCEx_PeriphCLKConfig+0x1e8>)
 8001a0c:	400b      	ands	r3, r1
 8001a0e:	68e1      	ldr	r1, [r4, #12]
 8001a10:	430b      	orrs	r3, r1
 8001a12:	6553      	str	r3, [r2, #84]	; 0x54
      __HAL_RCC_PLLCLKOUT_ENABLE(RCC_PLLQCLK);
    }
  }
#endif /* RNG */
  /*-------------------------- ADC clock source configuration ----------------------*/
  if (((PeriphClkInit->PeriphClockSelection) & RCC_PERIPHCLK_ADC) == RCC_PERIPHCLK_ADC)
 8001a14:	6823      	ldr	r3, [r4, #0]
 8001a16:	045b      	lsls	r3, r3, #17
 8001a18:	d50b      	bpl.n	8001a32 <HAL_RCCEx_PeriphCLKConfig+0x156>
  {
    /* Check the parameters */
    assert_param(IS_RCC_ADCCLKSOURCE(PeriphClkInit->AdcClockSelection));

    /* Configure the ADC interface clock source */
    __HAL_RCC_ADC_CONFIG(PeriphClkInit->AdcClockSelection);
 8001a1a:	4a21      	ldr	r2, [pc, #132]	; (8001aa0 <HAL_RCCEx_PeriphCLKConfig+0x1c4>)
 8001a1c:	6d53      	ldr	r3, [r2, #84]	; 0x54
 8001a1e:	009b      	lsls	r3, r3, #2
 8001a20:	089b      	lsrs	r3, r3, #2
 8001a22:	69e1      	ldr	r1, [r4, #28]
 8001a24:	430b      	orrs	r3, r1
 8001a26:	6553      	str	r3, [r2, #84]	; 0x54

    if (PeriphClkInit->AdcClockSelection == RCC_ADCCLKSOURCE_PLLADC)
 8001a28:	2380      	movs	r3, #128	; 0x80
 8001a2a:	05db      	lsls	r3, r3, #23
 8001a2c:	69e2      	ldr	r2, [r4, #28]
 8001a2e:	429a      	cmp	r2, r3
 8001a30:	d020      	beq.n	8001a74 <HAL_RCCEx_PeriphCLKConfig+0x198>
  }
#endif /* CEC */

#if defined(RCC_CCIPR_TIM1SEL)
  /*-------------------------- TIM1 clock source configuration ---------------------*/
  if (((PeriphClkInit->PeriphClockSelection) & RCC_PERIPHCLK_TIM1) == RCC_PERIPHCLK_TIM1)
 8001a32:	6823      	ldr	r3, [r4, #0]
 8001a34:	029b      	lsls	r3, r3, #10
 8001a36:	d50b      	bpl.n	8001a50 <HAL_RCCEx_PeriphCLKConfig+0x174>
  {
    /* Check the parameters */
    assert_param(IS_RCC_TIM1CLKSOURCE(PeriphClkInit->Tim1ClockSelection));

    /* Configure the TIM1 clock source */
    __HAL_RCC_TIM1_CONFIG(PeriphClkInit->Tim1ClockSelection);
 8001a38:	4a19      	ldr	r2, [pc, #100]	; (8001aa0 <HAL_RCCEx_PeriphCLKConfig+0x1c4>)
 8001a3a:	6d53      	ldr	r3, [r2, #84]	; 0x54
 8001a3c:	4922      	ldr	r1, [pc, #136]	; (8001ac8 <HAL_RCCEx_PeriphCLKConfig+0x1ec>)
 8001a3e:	400b      	ands	r3, r1
 8001a40:	6a21      	ldr	r1, [r4, #32]
 8001a42:	430b      	orrs	r3, r1
 8001a44:	6553      	str	r3, [r2, #84]	; 0x54

    if (PeriphClkInit->Tim1ClockSelection == RCC_TIM1CLKSOURCE_PLL)
 8001a46:	2380      	movs	r3, #128	; 0x80
 8001a48:	03db      	lsls	r3, r3, #15
 8001a4a:	6a22      	ldr	r2, [r4, #32]
 8001a4c:	429a      	cmp	r2, r3
 8001a4e:	d018      	beq.n	8001a82 <HAL_RCCEx_PeriphCLKConfig+0x1a6>
    }
  }
#endif /* RCC_CCIPR_TIM15SEL */

  /*-------------------------- I2S1 clock source configuration ---------------------*/
  if (((PeriphClkInit->PeriphClockSelection) & RCC_PERIPHCLK_I2S1) == RCC_PERIPHCLK_I2S1)
 8001a50:	6823      	ldr	r3, [r4, #0]
 8001a52:	051b      	lsls	r3, r3, #20
 8001a54:	d50b      	bpl.n	8001a6e <HAL_RCCEx_PeriphCLKConfig+0x192>
  {
    /* Check the parameters */
    assert_param(IS_RCC_I2S1CLKSOURCE(PeriphClkInit->I2s1ClockSelection));

    /* Configure the I2S1 clock source */
    __HAL_RCC_I2S1_CONFIG(PeriphClkInit->I2s1ClockSelection);
 8001a56:	4a12      	ldr	r2, [pc, #72]	; (8001aa0 <HAL_RCCEx_PeriphCLKConfig+0x1c4>)
 8001a58:	6d53      	ldr	r3, [r2, #84]	; 0x54
 8001a5a:	491c      	ldr	r1, [pc, #112]	; (8001acc <HAL_RCCEx_PeriphCLKConfig+0x1f0>)
 8001a5c:	400b      	ands	r3, r1
 8001a5e:	6921      	ldr	r1, [r4, #16]
 8001a60:	430b      	orrs	r3, r1
 8001a62:	6553      	str	r3, [r2, #84]	; 0x54

    if (PeriphClkInit->I2s1ClockSelection == RCC_I2S1CLKSOURCE_PLL)
 8001a64:	6922      	ldr	r2, [r4, #16]
 8001a66:	2380      	movs	r3, #128	; 0x80
 8001a68:	01db      	lsls	r3, r3, #7
 8001a6a:	429a      	cmp	r2, r3
 8001a6c:	d010      	beq.n	8001a90 <HAL_RCCEx_PeriphCLKConfig+0x1b4>
    }
  }
#endif /* FDCAN1 || FDCAN2 */

  return status;
}
 8001a6e:	0028      	movs	r0, r5
 8001a70:	b003      	add	sp, #12
 8001a72:	bdf0      	pop	{r4, r5, r6, r7, pc}
      __HAL_RCC_PLLCLKOUT_ENABLE(RCC_PLLPCLK);
 8001a74:	4a0a      	ldr	r2, [pc, #40]	; (8001aa0 <HAL_RCCEx_PeriphCLKConfig+0x1c4>)
 8001a76:	68d1      	ldr	r1, [r2, #12]
 8001a78:	2380      	movs	r3, #128	; 0x80
 8001a7a:	025b      	lsls	r3, r3, #9
 8001a7c:	430b      	orrs	r3, r1
 8001a7e:	60d3      	str	r3, [r2, #12]
 8001a80:	e7d7      	b.n	8001a32 <HAL_RCCEx_PeriphCLKConfig+0x156>
      __HAL_RCC_PLLCLKOUT_ENABLE(RCC_PLLQCLK);
 8001a82:	4a07      	ldr	r2, [pc, #28]	; (8001aa0 <HAL_RCCEx_PeriphCLKConfig+0x1c4>)
 8001a84:	68d1      	ldr	r1, [r2, #12]
 8001a86:	2380      	movs	r3, #128	; 0x80
 8001a88:	045b      	lsls	r3, r3, #17
 8001a8a:	430b      	orrs	r3, r1
 8001a8c:	60d3      	str	r3, [r2, #12]
 8001a8e:	e7df      	b.n	8001a50 <HAL_RCCEx_PeriphCLKConfig+0x174>
      __HAL_RCC_PLLCLKOUT_ENABLE(RCC_PLLPCLK);
 8001a90:	4a03      	ldr	r2, [pc, #12]	; (8001aa0 <HAL_RCCEx_PeriphCLKConfig+0x1c4>)
 8001a92:	68d1      	ldr	r1, [r2, #12]
 8001a94:	2380      	movs	r3, #128	; 0x80
 8001a96:	025b      	lsls	r3, r3, #9
 8001a98:	430b      	orrs	r3, r1
 8001a9a:	60d3      	str	r3, [r2, #12]
 8001a9c:	e7e7      	b.n	8001a6e <HAL_RCCEx_PeriphCLKConfig+0x192>
 8001a9e:	46c0      	nop			; (mov r8, r8)
 8001aa0:	40021000 	.word	0x40021000
 8001aa4:	40007000 	.word	0x40007000
 8001aa8:	fffffcff 	.word	0xfffffcff
 8001aac:	fffeffff 	.word	0xfffeffff
 8001ab0:	efffffff 	.word	0xefffffff
 8001ab4:	00001388 	.word	0x00001388
 8001ab8:	fffff3ff 	.word	0xfffff3ff
 8001abc:	fff3ffff 	.word	0xfff3ffff
 8001ac0:	ffcfffff 	.word	0xffcfffff
 8001ac4:	ffffcfff 	.word	0xffffcfff
 8001ac8:	ffbfffff 	.word	0xffbfffff
 8001acc:	ffff3fff 	.word	0xffff3fff

08001ad0 <HAL_RTC_WaitForSynchro>:
  *         correctly copied into the RTC_TR and RTC_DR shadow registers.
  * @param  hrtc RTC handle
  * @retval HAL status
  */
HAL_StatusTypeDef HAL_RTC_WaitForSynchro(RTC_HandleTypeDef* hrtc)
{
 8001ad0:	b570      	push	{r4, r5, r6, lr}
 8001ad2:	0004      	movs	r4, r0
  uint32_t tickstart;

  /* Clear RSF flag */
  hrtc->Instance->ICSR &= (uint32_t)RTC_RSF_MASK;
 8001ad4:	6802      	ldr	r2, [r0, #0]
 8001ad6:	68d3      	ldr	r3, [r2, #12]
 8001ad8:	21a0      	movs	r1, #160	; 0xa0
 8001ada:	438b      	bics	r3, r1
 8001adc:	60d3      	str	r3, [r2, #12]

  tickstart = HAL_GetTick();
 8001ade:	f7ff f889 	bl	8000bf4 <HAL_GetTick>
 8001ae2:	0005      	movs	r5, r0

  /* Wait the registers to be synchronised */
  while((hrtc->Instance->ICSR & RTC_ICSR_RSF) == 0U)
 8001ae4:	6823      	ldr	r3, [r4, #0]
 8001ae6:	68db      	ldr	r3, [r3, #12]
 8001ae8:	069b      	lsls	r3, r3, #26
 8001aea:	d408      	bmi.n	8001afe <HAL_RTC_WaitForSynchro+0x2e>
  {
    if((HAL_GetTick() - tickstart ) > RTC_TIMEOUT_VALUE)
 8001aec:	f7ff f882 	bl	8000bf4 <HAL_GetTick>
 8001af0:	1b40      	subs	r0, r0, r5
 8001af2:	23fa      	movs	r3, #250	; 0xfa
 8001af4:	009b      	lsls	r3, r3, #2
 8001af6:	4298      	cmp	r0, r3
 8001af8:	d9f4      	bls.n	8001ae4 <HAL_RTC_WaitForSynchro+0x14>
    {
      return HAL_TIMEOUT;
 8001afa:	2003      	movs	r0, #3
 8001afc:	e000      	b.n	8001b00 <HAL_RTC_WaitForSynchro+0x30>
    }
  }

  return HAL_OK;
 8001afe:	2000      	movs	r0, #0
}
 8001b00:	bd70      	pop	{r4, r5, r6, pc}

08001b02 <RTC_EnterInitMode>:
  *         __HAL_RTC_WRITEPROTECTION_DISABLE() before calling this function.
  * @param  hrtc RTC handle
  * @retval HAL status
  */
HAL_StatusTypeDef RTC_EnterInitMode(RTC_HandleTypeDef* hrtc)
{
 8001b02:	b570      	push	{r4, r5, r6, lr}
 8001b04:	0004      	movs	r4, r0
  uint32_t tickstart;
  HAL_StatusTypeDef status = HAL_OK;  

  /* Check if the Initialization mode is set */
  if((hrtc->Instance->ICSR & RTC_ICSR_INITF) == 0U)
 8001b06:	6803      	ldr	r3, [r0, #0]
 8001b08:	68da      	ldr	r2, [r3, #12]
 8001b0a:	0652      	lsls	r2, r2, #25
 8001b0c:	d502      	bpl.n	8001b14 <RTC_EnterInitMode+0x12>
  HAL_StatusTypeDef status = HAL_OK;  
 8001b0e:	2500      	movs	r5, #0
      }
    }
  }

  return status;
}
 8001b10:	0028      	movs	r0, r5
 8001b12:	bd70      	pop	{r4, r5, r6, pc}
    SET_BIT(hrtc->Instance->ICSR, RTC_ICSR_INIT);
 8001b14:	68da      	ldr	r2, [r3, #12]
 8001b16:	2180      	movs	r1, #128	; 0x80
 8001b18:	430a      	orrs	r2, r1
 8001b1a:	60da      	str	r2, [r3, #12]
    tickstart = HAL_GetTick();
 8001b1c:	f7ff f86a 	bl	8000bf4 <HAL_GetTick>
 8001b20:	0006      	movs	r6, r0
  HAL_StatusTypeDef status = HAL_OK;  
 8001b22:	2500      	movs	r5, #0
    while(((hrtc->Instance->ICSR & RTC_ICSR_INITF) == 0U) && (status != HAL_TIMEOUT))
 8001b24:	6823      	ldr	r3, [r4, #0]
 8001b26:	68db      	ldr	r3, [r3, #12]
 8001b28:	065b      	lsls	r3, r3, #25
 8001b2a:	d4f1      	bmi.n	8001b10 <RTC_EnterInitMode+0xe>
 8001b2c:	2d03      	cmp	r5, #3
 8001b2e:	d0ef      	beq.n	8001b10 <RTC_EnterInitMode+0xe>
      if((HAL_GetTick()  - tickstart ) > RTC_TIMEOUT_VALUE)
 8001b30:	f7ff f860 	bl	8000bf4 <HAL_GetTick>
 8001b34:	1b80      	subs	r0, r0, r6
 8001b36:	22fa      	movs	r2, #250	; 0xfa
 8001b38:	0092      	lsls	r2, r2, #2
 8001b3a:	4290      	cmp	r0, r2
 8001b3c:	d9f2      	bls.n	8001b24 <RTC_EnterInitMode+0x22>
        hrtc->State = HAL_RTC_STATE_TIMEOUT;
 8001b3e:	2329      	movs	r3, #41	; 0x29
 8001b40:	2203      	movs	r2, #3
 8001b42:	54e2      	strb	r2, [r4, r3]
        status = HAL_TIMEOUT;
 8001b44:	2503      	movs	r5, #3
 8001b46:	e7ed      	b.n	8001b24 <RTC_EnterInitMode+0x22>

08001b48 <RTC_ExitInitMode>:
  * @brief  Exit the RTC Initialization mode.
  * @param  hrtc RTC handle
  * @retval HAL status
  */
HAL_StatusTypeDef RTC_ExitInitMode(RTC_HandleTypeDef *hrtc)
{
 8001b48:	b510      	push	{r4, lr}
 8001b4a:	0004      	movs	r4, r0
  HAL_StatusTypeDef status = HAL_OK;

  /* Exit Initialization mode */
  CLEAR_BIT(RTC->ICSR, RTC_ICSR_INIT);
 8001b4c:	4b11      	ldr	r3, [pc, #68]	; (8001b94 <RTC_ExitInitMode+0x4c>)
 8001b4e:	68da      	ldr	r2, [r3, #12]
 8001b50:	2180      	movs	r1, #128	; 0x80
 8001b52:	438a      	bics	r2, r1
 8001b54:	60da      	str	r2, [r3, #12]

  /* If CR_BYPSHAD bit = 0, wait for synchro */
  if (READ_BIT(RTC->CR, RTC_CR_BYPSHAD) == 0U)
 8001b56:	699b      	ldr	r3, [r3, #24]
 8001b58:	069b      	lsls	r3, r3, #26
 8001b5a:	d408      	bmi.n	8001b6e <RTC_ExitInitMode+0x26>
  {
    if (HAL_RTC_WaitForSynchro(hrtc) != HAL_OK)
 8001b5c:	f7ff ffb8 	bl	8001ad0 <HAL_RTC_WaitForSynchro>
 8001b60:	2800      	cmp	r0, #0
 8001b62:	d016      	beq.n	8001b92 <RTC_ExitInitMode+0x4a>
    {
      hrtc->State = HAL_RTC_STATE_TIMEOUT;
 8001b64:	2329      	movs	r3, #41	; 0x29
 8001b66:	2203      	movs	r2, #3
 8001b68:	54e2      	strb	r2, [r4, r3]
      status = HAL_TIMEOUT;
 8001b6a:	2003      	movs	r0, #3
 8001b6c:	e011      	b.n	8001b92 <RTC_ExitInitMode+0x4a>
  }
  else /* WA 2.7.1 Calendar initialization may fail in case of consecutive INIT mode entry.
          Please look at STM32G0 Errata sheet on the internet for details. */
  {
    /* Clear BYPSHAD bit */
    CLEAR_BIT(RTC->CR, RTC_CR_BYPSHAD);
 8001b6e:	4a09      	ldr	r2, [pc, #36]	; (8001b94 <RTC_ExitInitMode+0x4c>)
 8001b70:	6993      	ldr	r3, [r2, #24]
 8001b72:	2120      	movs	r1, #32
 8001b74:	438b      	bics	r3, r1
 8001b76:	6193      	str	r3, [r2, #24]
    if (HAL_RTC_WaitForSynchro(hrtc) != HAL_OK)
 8001b78:	f7ff ffaa 	bl	8001ad0 <HAL_RTC_WaitForSynchro>
 8001b7c:	2800      	cmp	r0, #0
 8001b7e:	d003      	beq.n	8001b88 <RTC_ExitInitMode+0x40>
    {
      hrtc->State = HAL_RTC_STATE_TIMEOUT;
 8001b80:	2329      	movs	r3, #41	; 0x29
 8001b82:	2203      	movs	r2, #3
 8001b84:	54e2      	strb	r2, [r4, r3]
      status = HAL_TIMEOUT;
 8001b86:	2003      	movs	r0, #3
    }
    /* Restore BYPSHAD bit */
    SET_BIT(RTC->CR, RTC_CR_BYPSHAD);
 8001b88:	4a02      	ldr	r2, [pc, #8]	; (8001b94 <RTC_ExitInitMode+0x4c>)
 8001b8a:	6993      	ldr	r3, [r2, #24]
 8001b8c:	2120      	movs	r1, #32
 8001b8e:	430b      	orrs	r3, r1
 8001b90:	6193      	str	r3, [r2, #24]
  }

  return status;
}
 8001b92:	bd10      	pop	{r4, pc}
 8001b94:	40002800 	.word	0x40002800

08001b98 <HAL_RTC_Init>:
{
 8001b98:	b570      	push	{r4, r5, r6, lr}
 8001b9a:	1e04      	subs	r4, r0, #0
  if(hrtc != NULL)
 8001b9c:	d04e      	beq.n	8001c3c <HAL_RTC_Init+0xa4>
  if(hrtc->State == HAL_RTC_STATE_RESET)
 8001b9e:	2329      	movs	r3, #41	; 0x29
 8001ba0:	5cc3      	ldrb	r3, [r0, r3]
 8001ba2:	2b00      	cmp	r3, #0
 8001ba4:	d016      	beq.n	8001bd4 <HAL_RTC_Init+0x3c>
    hrtc->State = HAL_RTC_STATE_BUSY;
 8001ba6:	2329      	movs	r3, #41	; 0x29
 8001ba8:	2202      	movs	r2, #2
 8001baa:	54e2      	strb	r2, [r4, r3]
    __HAL_RTC_WRITEPROTECTION_DISABLE(hrtc);
 8001bac:	6823      	ldr	r3, [r4, #0]
 8001bae:	32c8      	adds	r2, #200	; 0xc8
 8001bb0:	625a      	str	r2, [r3, #36]	; 0x24
 8001bb2:	6823      	ldr	r3, [r4, #0]
 8001bb4:	3a77      	subs	r2, #119	; 0x77
 8001bb6:	625a      	str	r2, [r3, #36]	; 0x24
    status = RTC_EnterInitMode(hrtc);
 8001bb8:	0020      	movs	r0, r4
 8001bba:	f7ff ffa2 	bl	8001b02 <RTC_EnterInitMode>
    if(status == HAL_OK)
 8001bbe:	2800      	cmp	r0, #0
 8001bc0:	d011      	beq.n	8001be6 <HAL_RTC_Init+0x4e>
    __HAL_RTC_WRITEPROTECTION_ENABLE(hrtc);
 8001bc2:	6823      	ldr	r3, [r4, #0]
 8001bc4:	22ff      	movs	r2, #255	; 0xff
 8001bc6:	625a      	str	r2, [r3, #36]	; 0x24
    if (status == HAL_OK)
 8001bc8:	2800      	cmp	r0, #0
 8001bca:	d102      	bne.n	8001bd2 <HAL_RTC_Init+0x3a>
      hrtc->State = HAL_RTC_STATE_READY;
 8001bcc:	2329      	movs	r3, #41	; 0x29
 8001bce:	3afe      	subs	r2, #254	; 0xfe
 8001bd0:	54e2      	strb	r2, [r4, r3]
}
 8001bd2:	bd70      	pop	{r4, r5, r6, pc}
    hrtc->Lock = HAL_UNLOCKED;
 8001bd4:	3328      	adds	r3, #40	; 0x28
 8001bd6:	2200      	movs	r2, #0
 8001bd8:	54c2      	strb	r2, [r0, r3]
    hrtc->TampOffset = (TAMP_BASE - RTC_BASE);
 8001bda:	2388      	movs	r3, #136	; 0x88
 8001bdc:	021b      	lsls	r3, r3, #8
 8001bde:	6043      	str	r3, [r0, #4]
    HAL_RTC_MspInit(hrtc);
 8001be0:	f7fe fef0 	bl	80009c4 <HAL_RTC_MspInit>
 8001be4:	e7df      	b.n	8001ba6 <HAL_RTC_Init+0xe>
      hrtc->Instance->CR &= ~(RTC_CR_FMT | RTC_CR_POL | RTC_CR_OSEL | RTC_CR_TAMPOE);
 8001be6:	6822      	ldr	r2, [r4, #0]
 8001be8:	6993      	ldr	r3, [r2, #24]
 8001bea:	4915      	ldr	r1, [pc, #84]	; (8001c40 <HAL_RTC_Init+0xa8>)
 8001bec:	400b      	ands	r3, r1
 8001bee:	6193      	str	r3, [r2, #24]
      hrtc->Instance->CR |= (hrtc->Init.HourFormat | hrtc->Init.OutPut | hrtc->Init.OutPutPolarity);
 8001bf0:	6821      	ldr	r1, [r4, #0]
 8001bf2:	698a      	ldr	r2, [r1, #24]
 8001bf4:	68a3      	ldr	r3, [r4, #8]
 8001bf6:	6960      	ldr	r0, [r4, #20]
 8001bf8:	4303      	orrs	r3, r0
 8001bfa:	69e0      	ldr	r0, [r4, #28]
 8001bfc:	4303      	orrs	r3, r0
 8001bfe:	4313      	orrs	r3, r2
 8001c00:	618b      	str	r3, [r1, #24]
      hrtc->Instance->PRER = (hrtc->Init.SynchPrediv);
 8001c02:	6823      	ldr	r3, [r4, #0]
 8001c04:	6922      	ldr	r2, [r4, #16]
 8001c06:	611a      	str	r2, [r3, #16]
      hrtc->Instance->PRER |= (hrtc->Init.AsynchPrediv << RTC_PRER_PREDIV_A_Pos);
 8001c08:	6821      	ldr	r1, [r4, #0]
 8001c0a:	690b      	ldr	r3, [r1, #16]
 8001c0c:	68e2      	ldr	r2, [r4, #12]
 8001c0e:	0412      	lsls	r2, r2, #16
 8001c10:	4313      	orrs	r3, r2
 8001c12:	610b      	str	r3, [r1, #16]
      status = RTC_ExitInitMode(hrtc);
 8001c14:	0020      	movs	r0, r4
 8001c16:	f7ff ff97 	bl	8001b48 <RTC_ExitInitMode>
      if (status == HAL_OK)
 8001c1a:	2800      	cmp	r0, #0
 8001c1c:	d1d1      	bne.n	8001bc2 <HAL_RTC_Init+0x2a>
        hrtc->Instance->CR &= ~(RTC_CR_TAMPALRM_PU |RTC_CR_TAMPALRM_TYPE | RTC_CR_OUT2EN);
 8001c1e:	6822      	ldr	r2, [r4, #0]
 8001c20:	6993      	ldr	r3, [r2, #24]
 8001c22:	00db      	lsls	r3, r3, #3
 8001c24:	08db      	lsrs	r3, r3, #3
 8001c26:	6193      	str	r3, [r2, #24]
        hrtc->Instance->CR |= (hrtc->Init.OutPutPullUp | hrtc->Init.OutPutType | hrtc->Init.OutPutRemap);
 8001c28:	6821      	ldr	r1, [r4, #0]
 8001c2a:	698a      	ldr	r2, [r1, #24]
 8001c2c:	6a63      	ldr	r3, [r4, #36]	; 0x24
 8001c2e:	6a25      	ldr	r5, [r4, #32]
 8001c30:	432b      	orrs	r3, r5
 8001c32:	69a5      	ldr	r5, [r4, #24]
 8001c34:	432b      	orrs	r3, r5
 8001c36:	4313      	orrs	r3, r2
 8001c38:	618b      	str	r3, [r1, #24]
 8001c3a:	e7c2      	b.n	8001bc2 <HAL_RTC_Init+0x2a>
  HAL_StatusTypeDef status = HAL_ERROR;
 8001c3c:	2001      	movs	r0, #1
 8001c3e:	e7c8      	b.n	8001bd2 <HAL_RTC_Init+0x3a>
 8001c40:	fb8fffbf 	.word	0xfb8fffbf

08001c44 <HAL_RTCEx_SetWakeUpTimer_IT>:
  * @param  WakeUpCounter Wake up counter
  * @param  WakeUpClock Wake up clock
  * @retval HAL status
  */
HAL_StatusTypeDef HAL_RTCEx_SetWakeUpTimer_IT(RTC_HandleTypeDef *hrtc, uint32_t WakeUpCounter, uint32_t WakeUpClock)
{
 8001c44:	b5f8      	push	{r3, r4, r5, r6, r7, lr}
 8001c46:	0004      	movs	r4, r0
 8001c48:	000e      	movs	r6, r1
 8001c4a:	0015      	movs	r5, r2
  /* Check the parameters */
  assert_param(IS_RTC_WAKEUP_CLOCK(WakeUpClock));
  assert_param(IS_RTC_WAKEUP_COUNTER(WakeUpCounter));

  /* Process Locked */
  __HAL_LOCK(hrtc);
 8001c4c:	2328      	movs	r3, #40	; 0x28
 8001c4e:	5cc3      	ldrb	r3, [r0, r3]
 8001c50:	2b01      	cmp	r3, #1
 8001c52:	d05b      	beq.n	8001d0c <HAL_RTCEx_SetWakeUpTimer_IT+0xc8>
 8001c54:	2328      	movs	r3, #40	; 0x28
 8001c56:	2201      	movs	r2, #1
 8001c58:	54c2      	strb	r2, [r0, r3]

  hrtc->State = HAL_RTC_STATE_BUSY;
 8001c5a:	3301      	adds	r3, #1
 8001c5c:	3201      	adds	r2, #1
 8001c5e:	54c2      	strb	r2, [r0, r3]

  /* Disable the write protection for RTC registers */
  __HAL_RTC_WRITEPROTECTION_DISABLE(hrtc);
 8001c60:	6803      	ldr	r3, [r0, #0]
 8001c62:	32c8      	adds	r2, #200	; 0xc8
 8001c64:	625a      	str	r2, [r3, #36]	; 0x24
 8001c66:	6803      	ldr	r3, [r0, #0]
 8001c68:	3a77      	subs	r2, #119	; 0x77
 8001c6a:	625a      	str	r2, [r3, #36]	; 0x24

  /* Disable the Wake-Up timer */
  __HAL_RTC_WAKEUPTIMER_DISABLE(hrtc);
 8001c6c:	6802      	ldr	r2, [r0, #0]
 8001c6e:	6993      	ldr	r3, [r2, #24]
 8001c70:	4927      	ldr	r1, [pc, #156]	; (8001d10 <HAL_RTCEx_SetWakeUpTimer_IT+0xcc>)
 8001c72:	400b      	ands	r3, r1
 8001c74:	6193      	str	r3, [r2, #24]

  /* Clear flag Wake-Up */
  __HAL_RTC_WAKEUPTIMER_CLEAR_FLAG(hrtc, RTC_FLAG_WUTF);
 8001c76:	6802      	ldr	r2, [r0, #0]
 8001c78:	6dd3      	ldr	r3, [r2, #92]	; 0x5c
 8001c7a:	2104      	movs	r1, #4
 8001c7c:	430b      	orrs	r3, r1
 8001c7e:	65d3      	str	r3, [r2, #92]	; 0x5c

  /* Poll WUTWF until it is set in RTC_ICSR to make sure the access to wakeup autoreload
     counter and to WUCKSEL[2:0] bits is allowed. This step must be skipped in
     calendar initialization mode. */
  if (READ_BIT(RTC->ICSR, RTC_ICSR_INITF) == 0U)
 8001c80:	4b24      	ldr	r3, [pc, #144]	; (8001d14 <HAL_RTCEx_SetWakeUpTimer_IT+0xd0>)
 8001c82:	68db      	ldr	r3, [r3, #12]
 8001c84:	065b      	lsls	r3, r3, #25
 8001c86:	d528      	bpl.n	8001cda <HAL_RTCEx_SetWakeUpTimer_IT+0x96>
      }
    }
  }

  /* Configure the Wakeup Timer counter */
  hrtc->Instance->WUTR = (uint32_t)WakeUpCounter;
 8001c88:	6823      	ldr	r3, [r4, #0]
 8001c8a:	615e      	str	r6, [r3, #20]

  /* Clear the Wakeup Timer clock source bits in CR register */
  hrtc->Instance->CR &= (uint32_t)~RTC_CR_WUCKSEL;
 8001c8c:	6822      	ldr	r2, [r4, #0]
 8001c8e:	6993      	ldr	r3, [r2, #24]
 8001c90:	2107      	movs	r1, #7
 8001c92:	438b      	bics	r3, r1
 8001c94:	6193      	str	r3, [r2, #24]

  /* Configure the clock source */
  hrtc->Instance->CR |= (uint32_t)WakeUpClock;
 8001c96:	6823      	ldr	r3, [r4, #0]
 8001c98:	699a      	ldr	r2, [r3, #24]
 8001c9a:	4315      	orrs	r5, r2
 8001c9c:	619d      	str	r5, [r3, #24]

  /* RTC WakeUpTimer Interrupt Configuration: EXTI configuration */
  __HAL_RTC_WAKEUPTIMER_EXTI_ENABLE_IT();
 8001c9e:	491e      	ldr	r1, [pc, #120]	; (8001d18 <HAL_RTCEx_SetWakeUpTimer_IT+0xd4>)
 8001ca0:	2280      	movs	r2, #128	; 0x80
 8001ca2:	5888      	ldr	r0, [r1, r2]
 8001ca4:	2380      	movs	r3, #128	; 0x80
 8001ca6:	031b      	lsls	r3, r3, #12
 8001ca8:	4303      	orrs	r3, r0
 8001caa:	508b      	str	r3, [r1, r2]

  /* Configure the Interrupt in the RTC_CR register */
  __HAL_RTC_WAKEUPTIMER_ENABLE_IT(hrtc,RTC_IT_WUT);
 8001cac:	6822      	ldr	r2, [r4, #0]
 8001cae:	6991      	ldr	r1, [r2, #24]
 8001cb0:	2380      	movs	r3, #128	; 0x80
 8001cb2:	01db      	lsls	r3, r3, #7
 8001cb4:	430b      	orrs	r3, r1
 8001cb6:	6193      	str	r3, [r2, #24]

  /* Enable the Wakeup Timer */
  __HAL_RTC_WAKEUPTIMER_ENABLE(hrtc);
 8001cb8:	6822      	ldr	r2, [r4, #0]
 8001cba:	6991      	ldr	r1, [r2, #24]
 8001cbc:	2380      	movs	r3, #128	; 0x80
 8001cbe:	00db      	lsls	r3, r3, #3
 8001cc0:	430b      	orrs	r3, r1
 8001cc2:	6193      	str	r3, [r2, #24]

  /* Enable the write protection for RTC registers */
  __HAL_RTC_WRITEPROTECTION_ENABLE(hrtc);
 8001cc4:	6823      	ldr	r3, [r4, #0]
 8001cc6:	22ff      	movs	r2, #255	; 0xff
 8001cc8:	625a      	str	r2, [r3, #36]	; 0x24

  hrtc->State = HAL_RTC_STATE_READY;
 8001cca:	2329      	movs	r3, #41	; 0x29
 8001ccc:	3afe      	subs	r2, #254	; 0xfe
 8001cce:	54e2      	strb	r2, [r4, r3]

  /* Process Unlocked */
  __HAL_UNLOCK(hrtc);
 8001cd0:	3b01      	subs	r3, #1
 8001cd2:	2200      	movs	r2, #0
 8001cd4:	54e2      	strb	r2, [r4, r3]

  return HAL_OK;
 8001cd6:	2000      	movs	r0, #0
}
 8001cd8:	bdf8      	pop	{r3, r4, r5, r6, r7, pc}
    tickstart = HAL_GetTick();
 8001cda:	f7fe ff8b 	bl	8000bf4 <HAL_GetTick>
 8001cde:	0007      	movs	r7, r0
    while(__HAL_RTC_WAKEUPTIMER_GET_FLAG(hrtc, RTC_FLAG_WUTWF) == 0U)
 8001ce0:	6823      	ldr	r3, [r4, #0]
 8001ce2:	68db      	ldr	r3, [r3, #12]
 8001ce4:	075b      	lsls	r3, r3, #29
 8001ce6:	d4cf      	bmi.n	8001c88 <HAL_RTCEx_SetWakeUpTimer_IT+0x44>
      if((HAL_GetTick() - tickstart ) > RTC_TIMEOUT_VALUE)
 8001ce8:	f7fe ff84 	bl	8000bf4 <HAL_GetTick>
 8001cec:	1bc0      	subs	r0, r0, r7
 8001cee:	23fa      	movs	r3, #250	; 0xfa
 8001cf0:	009b      	lsls	r3, r3, #2
 8001cf2:	4298      	cmp	r0, r3
 8001cf4:	d9f4      	bls.n	8001ce0 <HAL_RTCEx_SetWakeUpTimer_IT+0x9c>
        __HAL_RTC_WRITEPROTECTION_ENABLE(hrtc);
 8001cf6:	6823      	ldr	r3, [r4, #0]
 8001cf8:	22ff      	movs	r2, #255	; 0xff
 8001cfa:	625a      	str	r2, [r3, #36]	; 0x24
        hrtc->State = HAL_RTC_STATE_TIMEOUT;
 8001cfc:	2329      	movs	r3, #41	; 0x29
 8001cfe:	3afc      	subs	r2, #252	; 0xfc
 8001d00:	54e2      	strb	r2, [r4, r3]
        __HAL_UNLOCK(hrtc);
 8001d02:	3b01      	subs	r3, #1
 8001d04:	2200      	movs	r2, #0
 8001d06:	54e2      	strb	r2, [r4, r3]
        return HAL_TIMEOUT;
 8001d08:	2003      	movs	r0, #3
 8001d0a:	e7e5      	b.n	8001cd8 <HAL_RTCEx_SetWakeUpTimer_IT+0x94>
  __HAL_LOCK(hrtc);
 8001d0c:	2002      	movs	r0, #2
 8001d0e:	e7e3      	b.n	8001cd8 <HAL_RTCEx_SetWakeUpTimer_IT+0x94>
 8001d10:	fffffbff 	.word	0xfffffbff
 8001d14:	40002800 	.word	0x40002800
 8001d18:	40021800 	.word	0x40021800

08001d1c <HAL_RTCEx_WakeUpTimerEventCallback>:
  UNUSED(hrtc);

  /* NOTE : This function should not be modified, when the callback is needed,
            the HAL_RTCEx_WakeUpTimerEventCallback could be implemented in the user file
   */
}
 8001d1c:	4770      	bx	lr

08001d1e <HAL_RTCEx_WakeUpTimerIRQHandler>:
{
 8001d1e:	b510      	push	{r4, lr}
 8001d20:	0004      	movs	r4, r0
    if(__HAL_RTC_WAKEUPTIMER_GET_FLAG(hrtc, RTC_FLAG_WUTF) != 0U)
 8001d22:	6803      	ldr	r3, [r0, #0]
 8001d24:	6d1a      	ldr	r2, [r3, #80]	; 0x50
 8001d26:	0752      	lsls	r2, r2, #29
 8001d28:	d403      	bmi.n	8001d32 <HAL_RTCEx_WakeUpTimerIRQHandler+0x14>
  hrtc->State = HAL_RTC_STATE_READY;
 8001d2a:	2329      	movs	r3, #41	; 0x29
 8001d2c:	2201      	movs	r2, #1
 8001d2e:	54e2      	strb	r2, [r4, r3]
}
 8001d30:	bd10      	pop	{r4, pc}
      __HAL_RTC_WAKEUPTIMER_CLEAR_FLAG(hrtc, RTC_FLAG_WUTF);
 8001d32:	6dda      	ldr	r2, [r3, #92]	; 0x5c
 8001d34:	2104      	movs	r1, #4
 8001d36:	430a      	orrs	r2, r1
 8001d38:	65da      	str	r2, [r3, #92]	; 0x5c
      HAL_RTCEx_WakeUpTimerEventCallback(hrtc);
 8001d3a:	f7ff ffef 	bl	8001d1c <HAL_RTCEx_WakeUpTimerEventCallback>
 8001d3e:	e7f4      	b.n	8001d2a <HAL_RTCEx_WakeUpTimerIRQHandler+0xc>

08001d40 <TIM_OC1_SetConfig>:
  * @param  TIMx to select the TIM peripheral
  * @param  OC_Config The output configuration structure
  * @retval None
  */
static void TIM_OC1_SetConfig(TIM_TypeDef *TIMx, const TIM_OC_InitTypeDef *OC_Config)
{
 8001d40:	b530      	push	{r4, r5, lr}
  uint32_t tmpccmrx;
  uint32_t tmpccer;
  uint32_t tmpcr2;

  /* Disable the Channel 1: Reset the CC1E Bit */
  TIMx->CCER &= ~TIM_CCER_CC1E;
 8001d42:	6a03      	ldr	r3, [r0, #32]
 8001d44:	2201      	movs	r2, #1
 8001d46:	4393      	bics	r3, r2
 8001d48:	6203      	str	r3, [r0, #32]

  /* Get the TIMx CCER register value */
  tmpccer = TIMx->CCER;
 8001d4a:	6a03      	ldr	r3, [r0, #32]
  /* Get the TIMx CR2 register value */
  tmpcr2 =  TIMx->CR2;
 8001d4c:	6842      	ldr	r2, [r0, #4]

  /* Get the TIMx CCMR1 register value */
  tmpccmrx = TIMx->CCMR1;
 8001d4e:	6984      	ldr	r4, [r0, #24]

  /* Reset the Output Compare Mode Bits */
  tmpccmrx &= ~TIM_CCMR1_OC1M;
  tmpccmrx &= ~TIM_CCMR1_CC1S;
 8001d50:	4d15      	ldr	r5, [pc, #84]	; (8001da8 <TIM_OC1_SetConfig+0x68>)
 8001d52:	402c      	ands	r4, r5
  /* Select the Output Compare Mode */
  tmpccmrx |= OC_Config->OCMode;
 8001d54:	680d      	ldr	r5, [r1, #0]
 8001d56:	432c      	orrs	r4, r5

  /* Reset the Output Polarity level */
  tmpccer &= ~TIM_CCER_CC1P;
 8001d58:	2502      	movs	r5, #2
 8001d5a:	43ab      	bics	r3, r5
  /* Set the Output Compare Polarity */
  tmpccer |= OC_Config->OCPolarity;
 8001d5c:	688d      	ldr	r5, [r1, #8]
 8001d5e:	432b      	orrs	r3, r5

  if (IS_TIM_CCXN_INSTANCE(TIMx, TIM_CHANNEL_1))
 8001d60:	4d12      	ldr	r5, [pc, #72]	; (8001dac <TIM_OC1_SetConfig+0x6c>)
 8001d62:	42a8      	cmp	r0, r5
 8001d64:	d005      	beq.n	8001d72 <TIM_OC1_SetConfig+0x32>
 8001d66:	4d12      	ldr	r5, [pc, #72]	; (8001db0 <TIM_OC1_SetConfig+0x70>)
 8001d68:	42a8      	cmp	r0, r5
 8001d6a:	d002      	beq.n	8001d72 <TIM_OC1_SetConfig+0x32>
 8001d6c:	4d11      	ldr	r5, [pc, #68]	; (8001db4 <TIM_OC1_SetConfig+0x74>)
 8001d6e:	42a8      	cmp	r0, r5
 8001d70:	d105      	bne.n	8001d7e <TIM_OC1_SetConfig+0x3e>
  {
    /* Check parameters */
    assert_param(IS_TIM_OCN_POLARITY(OC_Config->OCNPolarity));

    /* Reset the Output N Polarity level */
    tmpccer &= ~TIM_CCER_CC1NP;
 8001d72:	2508      	movs	r5, #8
 8001d74:	43ab      	bics	r3, r5
    /* Set the Output N Polarity */
    tmpccer |= OC_Config->OCNPolarity;
 8001d76:	68cd      	ldr	r5, [r1, #12]
 8001d78:	432b      	orrs	r3, r5
    /* Reset the Output N State */
    tmpccer &= ~TIM_CCER_CC1NE;
 8001d7a:	2504      	movs	r5, #4
 8001d7c:	43ab      	bics	r3, r5
  }

  if (IS_TIM_BREAK_INSTANCE(TIMx))
 8001d7e:	4d0b      	ldr	r5, [pc, #44]	; (8001dac <TIM_OC1_SetConfig+0x6c>)
 8001d80:	42a8      	cmp	r0, r5
 8001d82:	d005      	beq.n	8001d90 <TIM_OC1_SetConfig+0x50>
 8001d84:	4d0a      	ldr	r5, [pc, #40]	; (8001db0 <TIM_OC1_SetConfig+0x70>)
 8001d86:	42a8      	cmp	r0, r5
 8001d88:	d002      	beq.n	8001d90 <TIM_OC1_SetConfig+0x50>
 8001d8a:	4d0a      	ldr	r5, [pc, #40]	; (8001db4 <TIM_OC1_SetConfig+0x74>)
 8001d8c:	42a8      	cmp	r0, r5
 8001d8e:	d105      	bne.n	8001d9c <TIM_OC1_SetConfig+0x5c>
    assert_param(IS_TIM_OCNIDLE_STATE(OC_Config->OCNIdleState));
    assert_param(IS_TIM_OCIDLE_STATE(OC_Config->OCIdleState));

    /* Reset the Output Compare and Output Compare N IDLE State */
    tmpcr2 &= ~TIM_CR2_OIS1;
    tmpcr2 &= ~TIM_CR2_OIS1N;
 8001d90:	4d09      	ldr	r5, [pc, #36]	; (8001db8 <TIM_OC1_SetConfig+0x78>)
 8001d92:	402a      	ands	r2, r5
    /* Set the Output Idle state */
    tmpcr2 |= OC_Config->OCIdleState;
 8001d94:	694d      	ldr	r5, [r1, #20]
 8001d96:	432a      	orrs	r2, r5
    /* Set the Output N Idle state */
    tmpcr2 |= OC_Config->OCNIdleState;
 8001d98:	698d      	ldr	r5, [r1, #24]
 8001d9a:	432a      	orrs	r2, r5
  }

  /* Write to TIMx CR2 */
  TIMx->CR2 = tmpcr2;
 8001d9c:	6042      	str	r2, [r0, #4]

  /* Write to TIMx CCMR1 */
  TIMx->CCMR1 = tmpccmrx;
 8001d9e:	6184      	str	r4, [r0, #24]

  /* Set the Capture Compare Register value */
  TIMx->CCR1 = OC_Config->Pulse;
 8001da0:	684a      	ldr	r2, [r1, #4]
 8001da2:	6342      	str	r2, [r0, #52]	; 0x34

  /* Write to TIMx CCER */
  TIMx->CCER = tmpccer;
 8001da4:	6203      	str	r3, [r0, #32]
}
 8001da6:	bd30      	pop	{r4, r5, pc}
 8001da8:	fffeff8c 	.word	0xfffeff8c
 8001dac:	40012c00 	.word	0x40012c00
 8001db0:	40014400 	.word	0x40014400
 8001db4:	40014800 	.word	0x40014800
 8001db8:	fffffcff 	.word	0xfffffcff

08001dbc <TIM_OC3_SetConfig>:
  * @param  TIMx to select the TIM peripheral
  * @param  OC_Config The output configuration structure
  * @retval None
  */
static void TIM_OC3_SetConfig(TIM_TypeDef *TIMx, const TIM_OC_InitTypeDef *OC_Config)
{
 8001dbc:	b570      	push	{r4, r5, r6, lr}
  uint32_t tmpccmrx;
  uint32_t tmpccer;
  uint32_t tmpcr2;

  /* Disable the Channel 3: Reset the CC2E Bit */
  TIMx->CCER &= ~TIM_CCER_CC3E;
 8001dbe:	6a03      	ldr	r3, [r0, #32]
 8001dc0:	4a18      	ldr	r2, [pc, #96]	; (8001e24 <TIM_OC3_SetConfig+0x68>)
 8001dc2:	4013      	ands	r3, r2
 8001dc4:	6203      	str	r3, [r0, #32]

  /* Get the TIMx CCER register value */
  tmpccer = TIMx->CCER;
 8001dc6:	6a03      	ldr	r3, [r0, #32]
  /* Get the TIMx CR2 register value */
  tmpcr2 =  TIMx->CR2;
 8001dc8:	6844      	ldr	r4, [r0, #4]

  /* Get the TIMx CCMR2 register value */
  tmpccmrx = TIMx->CCMR2;
 8001dca:	69c2      	ldr	r2, [r0, #28]

  /* Reset the Output Compare mode and Capture/Compare selection Bits */
  tmpccmrx &= ~TIM_CCMR2_OC3M;
  tmpccmrx &= ~TIM_CCMR2_CC3S;
 8001dcc:	4d16      	ldr	r5, [pc, #88]	; (8001e28 <TIM_OC3_SetConfig+0x6c>)
 8001dce:	402a      	ands	r2, r5
  /* Select the Output Compare Mode */
  tmpccmrx |= OC_Config->OCMode;
 8001dd0:	680e      	ldr	r6, [r1, #0]
 8001dd2:	4316      	orrs	r6, r2

  /* Reset the Output Polarity level */
  tmpccer &= ~TIM_CCER_CC3P;
 8001dd4:	4a15      	ldr	r2, [pc, #84]	; (8001e2c <TIM_OC3_SetConfig+0x70>)
 8001dd6:	4013      	ands	r3, r2
  /* Set the Output Compare Polarity */
  tmpccer |= (OC_Config->OCPolarity << 8U);
 8001dd8:	688a      	ldr	r2, [r1, #8]
 8001dda:	0212      	lsls	r2, r2, #8
 8001ddc:	4313      	orrs	r3, r2

  if (IS_TIM_CCXN_INSTANCE(TIMx, TIM_CHANNEL_3))
 8001dde:	4a14      	ldr	r2, [pc, #80]	; (8001e30 <TIM_OC3_SetConfig+0x74>)
 8001de0:	4290      	cmp	r0, r2
 8001de2:	d016      	beq.n	8001e12 <TIM_OC3_SetConfig+0x56>
    tmpccer |= (OC_Config->OCNPolarity << 8U);
    /* Reset the Output N State */
    tmpccer &= ~TIM_CCER_CC3NE;
  }

  if (IS_TIM_BREAK_INSTANCE(TIMx))
 8001de4:	4a12      	ldr	r2, [pc, #72]	; (8001e30 <TIM_OC3_SetConfig+0x74>)
 8001de6:	4290      	cmp	r0, r2
 8001de8:	d005      	beq.n	8001df6 <TIM_OC3_SetConfig+0x3a>
 8001dea:	4a12      	ldr	r2, [pc, #72]	; (8001e34 <TIM_OC3_SetConfig+0x78>)
 8001dec:	4290      	cmp	r0, r2
 8001dee:	d002      	beq.n	8001df6 <TIM_OC3_SetConfig+0x3a>
 8001df0:	4a11      	ldr	r2, [pc, #68]	; (8001e38 <TIM_OC3_SetConfig+0x7c>)
 8001df2:	4290      	cmp	r0, r2
 8001df4:	d107      	bne.n	8001e06 <TIM_OC3_SetConfig+0x4a>
    assert_param(IS_TIM_OCNIDLE_STATE(OC_Config->OCNIdleState));
    assert_param(IS_TIM_OCIDLE_STATE(OC_Config->OCIdleState));

    /* Reset the Output Compare and Output Compare N IDLE State */
    tmpcr2 &= ~TIM_CR2_OIS3;
    tmpcr2 &= ~TIM_CR2_OIS3N;
 8001df6:	4a11      	ldr	r2, [pc, #68]	; (8001e3c <TIM_OC3_SetConfig+0x80>)
 8001df8:	4022      	ands	r2, r4
    /* Set the Output Idle state */
    tmpcr2 |= (OC_Config->OCIdleState << 4U);
 8001dfa:	694c      	ldr	r4, [r1, #20]
 8001dfc:	0124      	lsls	r4, r4, #4
 8001dfe:	4314      	orrs	r4, r2
    /* Set the Output N Idle state */
    tmpcr2 |= (OC_Config->OCNIdleState << 4U);
 8001e00:	698a      	ldr	r2, [r1, #24]
 8001e02:	0115      	lsls	r5, r2, #4
 8001e04:	432c      	orrs	r4, r5
  }

  /* Write to TIMx CR2 */
  TIMx->CR2 = tmpcr2;
 8001e06:	6044      	str	r4, [r0, #4]

  /* Write to TIMx CCMR2 */
  TIMx->CCMR2 = tmpccmrx;
 8001e08:	61c6      	str	r6, [r0, #28]

  /* Set the Capture Compare Register value */
  TIMx->CCR3 = OC_Config->Pulse;
 8001e0a:	684a      	ldr	r2, [r1, #4]
 8001e0c:	63c2      	str	r2, [r0, #60]	; 0x3c

  /* Write to TIMx CCER */
  TIMx->CCER = tmpccer;
 8001e0e:	6203      	str	r3, [r0, #32]
}
 8001e10:	bd70      	pop	{r4, r5, r6, pc}
    tmpccer &= ~TIM_CCER_CC3NP;
 8001e12:	4a0b      	ldr	r2, [pc, #44]	; (8001e40 <TIM_OC3_SetConfig+0x84>)
 8001e14:	401a      	ands	r2, r3
    tmpccer |= (OC_Config->OCNPolarity << 8U);
 8001e16:	68cb      	ldr	r3, [r1, #12]
 8001e18:	021b      	lsls	r3, r3, #8
 8001e1a:	4313      	orrs	r3, r2
    tmpccer &= ~TIM_CCER_CC3NE;
 8001e1c:	4a09      	ldr	r2, [pc, #36]	; (8001e44 <TIM_OC3_SetConfig+0x88>)
 8001e1e:	4013      	ands	r3, r2
 8001e20:	e7e0      	b.n	8001de4 <TIM_OC3_SetConfig+0x28>
 8001e22:	46c0      	nop			; (mov r8, r8)
 8001e24:	fffffeff 	.word	0xfffffeff
 8001e28:	fffeff8c 	.word	0xfffeff8c
 8001e2c:	fffffdff 	.word	0xfffffdff
 8001e30:	40012c00 	.word	0x40012c00
 8001e34:	40014400 	.word	0x40014400
 8001e38:	40014800 	.word	0x40014800
 8001e3c:	ffffcfff 	.word	0xffffcfff
 8001e40:	fffff7ff 	.word	0xfffff7ff
 8001e44:	fffffbff 	.word	0xfffffbff

08001e48 <TIM_OC4_SetConfig>:
  * @param  TIMx to select the TIM peripheral
  * @param  OC_Config The output configuration structure
  * @retval None
  */
static void TIM_OC4_SetConfig(TIM_TypeDef *TIMx, const TIM_OC_InitTypeDef *OC_Config)
{
 8001e48:	b530      	push	{r4, r5, lr}
  uint32_t tmpccmrx;
  uint32_t tmpccer;
  uint32_t tmpcr2;

  /* Disable the Channel 4: Reset the CC4E Bit */
  TIMx->CCER &= ~TIM_CCER_CC4E;
 8001e4a:	6a03      	ldr	r3, [r0, #32]
 8001e4c:	4a11      	ldr	r2, [pc, #68]	; (8001e94 <TIM_OC4_SetConfig+0x4c>)
 8001e4e:	4013      	ands	r3, r2
 8001e50:	6203      	str	r3, [r0, #32]

  /* Get the TIMx CCER register value */
  tmpccer = TIMx->CCER;
 8001e52:	6a03      	ldr	r3, [r0, #32]
  /* Get the TIMx CR2 register value */
  tmpcr2 =  TIMx->CR2;
 8001e54:	6845      	ldr	r5, [r0, #4]

  /* Get the TIMx CCMR2 register value */
  tmpccmrx = TIMx->CCMR2;
 8001e56:	69c2      	ldr	r2, [r0, #28]

  /* Reset the Output Compare mode and Capture/Compare selection Bits */
  tmpccmrx &= ~TIM_CCMR2_OC4M;
  tmpccmrx &= ~TIM_CCMR2_CC4S;
 8001e58:	4c0f      	ldr	r4, [pc, #60]	; (8001e98 <TIM_OC4_SetConfig+0x50>)
 8001e5a:	4022      	ands	r2, r4

  /* Select the Output Compare Mode */
  tmpccmrx |= (OC_Config->OCMode << 8U);
 8001e5c:	680c      	ldr	r4, [r1, #0]
 8001e5e:	0224      	lsls	r4, r4, #8
 8001e60:	4322      	orrs	r2, r4

  /* Reset the Output Polarity level */
  tmpccer &= ~TIM_CCER_CC4P;
 8001e62:	4c0e      	ldr	r4, [pc, #56]	; (8001e9c <TIM_OC4_SetConfig+0x54>)
 8001e64:	401c      	ands	r4, r3
  /* Set the Output Compare Polarity */
  tmpccer |= (OC_Config->OCPolarity << 12U);
 8001e66:	688b      	ldr	r3, [r1, #8]
 8001e68:	031b      	lsls	r3, r3, #12
 8001e6a:	4323      	orrs	r3, r4

  if (IS_TIM_BREAK_INSTANCE(TIMx))
 8001e6c:	4c0c      	ldr	r4, [pc, #48]	; (8001ea0 <TIM_OC4_SetConfig+0x58>)
 8001e6e:	42a0      	cmp	r0, r4
 8001e70:	d005      	beq.n	8001e7e <TIM_OC4_SetConfig+0x36>
 8001e72:	4c0c      	ldr	r4, [pc, #48]	; (8001ea4 <TIM_OC4_SetConfig+0x5c>)
 8001e74:	42a0      	cmp	r0, r4
 8001e76:	d002      	beq.n	8001e7e <TIM_OC4_SetConfig+0x36>
 8001e78:	4c0b      	ldr	r4, [pc, #44]	; (8001ea8 <TIM_OC4_SetConfig+0x60>)
 8001e7a:	42a0      	cmp	r0, r4
 8001e7c:	d104      	bne.n	8001e88 <TIM_OC4_SetConfig+0x40>
  {
    /* Check parameters */
    assert_param(IS_TIM_OCIDLE_STATE(OC_Config->OCIdleState));

    /* Reset the Output Compare IDLE State */
    tmpcr2 &= ~TIM_CR2_OIS4;
 8001e7e:	4c0b      	ldr	r4, [pc, #44]	; (8001eac <TIM_OC4_SetConfig+0x64>)
 8001e80:	4025      	ands	r5, r4

    /* Set the Output Idle state */
    tmpcr2 |= (OC_Config->OCIdleState << 6U);
 8001e82:	694c      	ldr	r4, [r1, #20]
 8001e84:	01a4      	lsls	r4, r4, #6
 8001e86:	4325      	orrs	r5, r4
  }

  /* Write to TIMx CR2 */
  TIMx->CR2 = tmpcr2;
 8001e88:	6045      	str	r5, [r0, #4]

  /* Write to TIMx CCMR2 */
  TIMx->CCMR2 = tmpccmrx;
 8001e8a:	61c2      	str	r2, [r0, #28]

  /* Set the Capture Compare Register value */
  TIMx->CCR4 = OC_Config->Pulse;
 8001e8c:	684a      	ldr	r2, [r1, #4]
 8001e8e:	6402      	str	r2, [r0, #64]	; 0x40

  /* Write to TIMx CCER */
  TIMx->CCER = tmpccer;
 8001e90:	6203      	str	r3, [r0, #32]
}
 8001e92:	bd30      	pop	{r4, r5, pc}
 8001e94:	ffffefff 	.word	0xffffefff
 8001e98:	feff8cff 	.word	0xfeff8cff
 8001e9c:	ffffdfff 	.word	0xffffdfff
 8001ea0:	40012c00 	.word	0x40012c00
 8001ea4:	40014400 	.word	0x40014400
 8001ea8:	40014800 	.word	0x40014800
 8001eac:	ffffbfff 	.word	0xffffbfff

08001eb0 <TIM_OC5_SetConfig>:
  * @param  OC_Config The output configuration structure
  * @retval None
  */
static void TIM_OC5_SetConfig(TIM_TypeDef *TIMx,
                              const TIM_OC_InitTypeDef *OC_Config)
{
 8001eb0:	b530      	push	{r4, r5, lr}
  uint32_t tmpccmrx;
  uint32_t tmpccer;
  uint32_t tmpcr2;

  /* Disable the output: Reset the CCxE Bit */
  TIMx->CCER &= ~TIM_CCER_CC5E;
 8001eb2:	6a03      	ldr	r3, [r0, #32]
 8001eb4:	4a11      	ldr	r2, [pc, #68]	; (8001efc <TIM_OC5_SetConfig+0x4c>)
 8001eb6:	4013      	ands	r3, r2
 8001eb8:	6203      	str	r3, [r0, #32]

  /* Get the TIMx CCER register value */
  tmpccer = TIMx->CCER;
 8001eba:	6a03      	ldr	r3, [r0, #32]
  /* Get the TIMx CR2 register value */
  tmpcr2 =  TIMx->CR2;
 8001ebc:	6842      	ldr	r2, [r0, #4]
  /* Get the TIMx CCMR1 register value */
  tmpccmrx = TIMx->CCMR3;
 8001ebe:	6d44      	ldr	r4, [r0, #84]	; 0x54

  /* Reset the Output Compare Mode Bits */
  tmpccmrx &= ~(TIM_CCMR3_OC5M);
 8001ec0:	4d0f      	ldr	r5, [pc, #60]	; (8001f00 <TIM_OC5_SetConfig+0x50>)
 8001ec2:	402c      	ands	r4, r5
  /* Select the Output Compare Mode */
  tmpccmrx |= OC_Config->OCMode;
 8001ec4:	680d      	ldr	r5, [r1, #0]
 8001ec6:	432c      	orrs	r4, r5

  /* Reset the Output Polarity level */
  tmpccer &= ~TIM_CCER_CC5P;
 8001ec8:	4d0e      	ldr	r5, [pc, #56]	; (8001f04 <TIM_OC5_SetConfig+0x54>)
 8001eca:	401d      	ands	r5, r3
  /* Set the Output Compare Polarity */
  tmpccer |= (OC_Config->OCPolarity << 16U);
 8001ecc:	688b      	ldr	r3, [r1, #8]
 8001ece:	041b      	lsls	r3, r3, #16
 8001ed0:	432b      	orrs	r3, r5

  if (IS_TIM_BREAK_INSTANCE(TIMx))
 8001ed2:	4d0d      	ldr	r5, [pc, #52]	; (8001f08 <TIM_OC5_SetConfig+0x58>)
 8001ed4:	42a8      	cmp	r0, r5
 8001ed6:	d005      	beq.n	8001ee4 <TIM_OC5_SetConfig+0x34>
 8001ed8:	4d0c      	ldr	r5, [pc, #48]	; (8001f0c <TIM_OC5_SetConfig+0x5c>)
 8001eda:	42a8      	cmp	r0, r5
 8001edc:	d002      	beq.n	8001ee4 <TIM_OC5_SetConfig+0x34>
 8001ede:	4d0c      	ldr	r5, [pc, #48]	; (8001f10 <TIM_OC5_SetConfig+0x60>)
 8001ee0:	42a8      	cmp	r0, r5
 8001ee2:	d104      	bne.n	8001eee <TIM_OC5_SetConfig+0x3e>
  {
    /* Reset the Output Compare IDLE State */
    tmpcr2 &= ~TIM_CR2_OIS5;
 8001ee4:	4d05      	ldr	r5, [pc, #20]	; (8001efc <TIM_OC5_SetConfig+0x4c>)
 8001ee6:	402a      	ands	r2, r5
    /* Set the Output Idle state */
    tmpcr2 |= (OC_Config->OCIdleState << 8U);
 8001ee8:	694d      	ldr	r5, [r1, #20]
 8001eea:	022d      	lsls	r5, r5, #8
 8001eec:	432a      	orrs	r2, r5
  }
  /* Write to TIMx CR2 */
  TIMx->CR2 = tmpcr2;
 8001eee:	6042      	str	r2, [r0, #4]

  /* Write to TIMx CCMR3 */
  TIMx->CCMR3 = tmpccmrx;
 8001ef0:	6544      	str	r4, [r0, #84]	; 0x54

  /* Set the Capture Compare Register value */
  TIMx->CCR5 = OC_Config->Pulse;
 8001ef2:	684a      	ldr	r2, [r1, #4]
 8001ef4:	6582      	str	r2, [r0, #88]	; 0x58

  /* Write to TIMx CCER */
  TIMx->CCER = tmpccer;
 8001ef6:	6203      	str	r3, [r0, #32]
}
 8001ef8:	bd30      	pop	{r4, r5, pc}
 8001efa:	46c0      	nop			; (mov r8, r8)
 8001efc:	fffeffff 	.word	0xfffeffff
 8001f00:	fffeff8f 	.word	0xfffeff8f
 8001f04:	fffdffff 	.word	0xfffdffff
 8001f08:	40012c00 	.word	0x40012c00
 8001f0c:	40014400 	.word	0x40014400
 8001f10:	40014800 	.word	0x40014800

08001f14 <TIM_OC6_SetConfig>:
  * @param  OC_Config The output configuration structure
  * @retval None
  */
static void TIM_OC6_SetConfig(TIM_TypeDef *TIMx,
                              const TIM_OC_InitTypeDef *OC_Config)
{
 8001f14:	b530      	push	{r4, r5, lr}
  uint32_t tmpccmrx;
  uint32_t tmpccer;
  uint32_t tmpcr2;

  /* Disable the output: Reset the CCxE Bit */
  TIMx->CCER &= ~TIM_CCER_CC6E;
 8001f16:	6a03      	ldr	r3, [r0, #32]
 8001f18:	4a11      	ldr	r2, [pc, #68]	; (8001f60 <TIM_OC6_SetConfig+0x4c>)
 8001f1a:	4013      	ands	r3, r2
 8001f1c:	6203      	str	r3, [r0, #32]

  /* Get the TIMx CCER register value */
  tmpccer = TIMx->CCER;
 8001f1e:	6a03      	ldr	r3, [r0, #32]
  /* Get the TIMx CR2 register value */
  tmpcr2 =  TIMx->CR2;
 8001f20:	6845      	ldr	r5, [r0, #4]
  /* Get the TIMx CCMR1 register value */
  tmpccmrx = TIMx->CCMR3;
 8001f22:	6d42      	ldr	r2, [r0, #84]	; 0x54

  /* Reset the Output Compare Mode Bits */
  tmpccmrx &= ~(TIM_CCMR3_OC6M);
 8001f24:	4c0f      	ldr	r4, [pc, #60]	; (8001f64 <TIM_OC6_SetConfig+0x50>)
 8001f26:	4022      	ands	r2, r4
  /* Select the Output Compare Mode */
  tmpccmrx |= (OC_Config->OCMode << 8U);
 8001f28:	680c      	ldr	r4, [r1, #0]
 8001f2a:	0224      	lsls	r4, r4, #8
 8001f2c:	4322      	orrs	r2, r4

  /* Reset the Output Polarity level */
  tmpccer &= (uint32_t)~TIM_CCER_CC6P;
 8001f2e:	4c0e      	ldr	r4, [pc, #56]	; (8001f68 <TIM_OC6_SetConfig+0x54>)
 8001f30:	401c      	ands	r4, r3
  /* Set the Output Compare Polarity */
  tmpccer |= (OC_Config->OCPolarity << 20U);
 8001f32:	688b      	ldr	r3, [r1, #8]
 8001f34:	051b      	lsls	r3, r3, #20
 8001f36:	4323      	orrs	r3, r4

  if (IS_TIM_BREAK_INSTANCE(TIMx))
 8001f38:	4c0c      	ldr	r4, [pc, #48]	; (8001f6c <TIM_OC6_SetConfig+0x58>)
 8001f3a:	42a0      	cmp	r0, r4
 8001f3c:	d005      	beq.n	8001f4a <TIM_OC6_SetConfig+0x36>
 8001f3e:	4c0c      	ldr	r4, [pc, #48]	; (8001f70 <TIM_OC6_SetConfig+0x5c>)
 8001f40:	42a0      	cmp	r0, r4
 8001f42:	d002      	beq.n	8001f4a <TIM_OC6_SetConfig+0x36>
 8001f44:	4c0b      	ldr	r4, [pc, #44]	; (8001f74 <TIM_OC6_SetConfig+0x60>)
 8001f46:	42a0      	cmp	r0, r4
 8001f48:	d104      	bne.n	8001f54 <TIM_OC6_SetConfig+0x40>
  {
    /* Reset the Output Compare IDLE State */
    tmpcr2 &= ~TIM_CR2_OIS6;
 8001f4a:	4c0b      	ldr	r4, [pc, #44]	; (8001f78 <TIM_OC6_SetConfig+0x64>)
 8001f4c:	4025      	ands	r5, r4
    /* Set the Output Idle state */
    tmpcr2 |= (OC_Config->OCIdleState << 10U);
 8001f4e:	694c      	ldr	r4, [r1, #20]
 8001f50:	02a4      	lsls	r4, r4, #10
 8001f52:	4325      	orrs	r5, r4
  }

  /* Write to TIMx CR2 */
  TIMx->CR2 = tmpcr2;
 8001f54:	6045      	str	r5, [r0, #4]

  /* Write to TIMx CCMR3 */
  TIMx->CCMR3 = tmpccmrx;
 8001f56:	6542      	str	r2, [r0, #84]	; 0x54

  /* Set the Capture Compare Register value */
  TIMx->CCR6 = OC_Config->Pulse;
 8001f58:	684a      	ldr	r2, [r1, #4]
 8001f5a:	65c2      	str	r2, [r0, #92]	; 0x5c

  /* Write to TIMx CCER */
  TIMx->CCER = tmpccer;
 8001f5c:	6203      	str	r3, [r0, #32]
}
 8001f5e:	bd30      	pop	{r4, r5, pc}
 8001f60:	ffefffff 	.word	0xffefffff
 8001f64:	feff8fff 	.word	0xfeff8fff
 8001f68:	ffdfffff 	.word	0xffdfffff
 8001f6c:	40012c00 	.word	0x40012c00
 8001f70:	40014400 	.word	0x40014400
 8001f74:	40014800 	.word	0x40014800
 8001f78:	fffbffff 	.word	0xfffbffff

08001f7c <TIM_TI1_ConfigInputStage>:
  * @param  TIM_ICFilter Specifies the Input Capture Filter.
  *          This parameter must be a value between 0x00 and 0x0F.
  * @retval None
  */
static void TIM_TI1_ConfigInputStage(TIM_TypeDef *TIMx, uint32_t TIM_ICPolarity, uint32_t TIM_ICFilter)
{
 8001f7c:	b530      	push	{r4, r5, lr}
  uint32_t tmpccmr1;
  uint32_t tmpccer;

  /* Disable the Channel 1: Reset the CC1E Bit */
  tmpccer = TIMx->CCER;
 8001f7e:	6a03      	ldr	r3, [r0, #32]
  TIMx->CCER &= ~TIM_CCER_CC1E;
 8001f80:	6a04      	ldr	r4, [r0, #32]
 8001f82:	2501      	movs	r5, #1
 8001f84:	43ac      	bics	r4, r5
 8001f86:	6204      	str	r4, [r0, #32]
  tmpccmr1 = TIMx->CCMR1;
 8001f88:	6984      	ldr	r4, [r0, #24]

  /* Set the filter */
  tmpccmr1 &= ~TIM_CCMR1_IC1F;
 8001f8a:	35ef      	adds	r5, #239	; 0xef
 8001f8c:	43ac      	bics	r4, r5
  tmpccmr1 |= (TIM_ICFilter << 4U);
 8001f8e:	0112      	lsls	r2, r2, #4
 8001f90:	4322      	orrs	r2, r4

  /* Select the Polarity and set the CC1E Bit */
  tmpccer &= ~(TIM_CCER_CC1P | TIM_CCER_CC1NP);
 8001f92:	240a      	movs	r4, #10
 8001f94:	43a3      	bics	r3, r4
  tmpccer |= TIM_ICPolarity;
 8001f96:	430b      	orrs	r3, r1

  /* Write to TIMx CCMR1 and CCER registers */
  TIMx->CCMR1 = tmpccmr1;
 8001f98:	6182      	str	r2, [r0, #24]
  TIMx->CCER = tmpccer;
 8001f9a:	6203      	str	r3, [r0, #32]
}
 8001f9c:	bd30      	pop	{r4, r5, pc}
	...

08001fa0 <TIM_TI2_ConfigInputStage>:
  * @param  TIM_ICFilter Specifies the Input Capture Filter.
  *          This parameter must be a value between 0x00 and 0x0F.
  * @retval None
  */
static void TIM_TI2_ConfigInputStage(TIM_TypeDef *TIMx, uint32_t TIM_ICPolarity, uint32_t TIM_ICFilter)
{
 8001fa0:	b530      	push	{r4, r5, lr}
  uint32_t tmpccmr1;
  uint32_t tmpccer;

  /* Disable the Channel 2: Reset the CC2E Bit */
  TIMx->CCER &= ~TIM_CCER_CC2E;
 8001fa2:	6a03      	ldr	r3, [r0, #32]
 8001fa4:	2410      	movs	r4, #16
 8001fa6:	43a3      	bics	r3, r4
 8001fa8:	6203      	str	r3, [r0, #32]
  tmpccmr1 = TIMx->CCMR1;
 8001faa:	6984      	ldr	r4, [r0, #24]
  tmpccer = TIMx->CCER;
 8001fac:	6a03      	ldr	r3, [r0, #32]

  /* Set the filter */
  tmpccmr1 &= ~TIM_CCMR1_IC2F;
 8001fae:	4d05      	ldr	r5, [pc, #20]	; (8001fc4 <TIM_TI2_ConfigInputStage+0x24>)
 8001fb0:	402c      	ands	r4, r5
  tmpccmr1 |= (TIM_ICFilter << 12U);
 8001fb2:	0312      	lsls	r2, r2, #12
 8001fb4:	4322      	orrs	r2, r4

  /* Select the Polarity and set the CC2E Bit */
  tmpccer &= ~(TIM_CCER_CC2P | TIM_CCER_CC2NP);
 8001fb6:	24a0      	movs	r4, #160	; 0xa0
 8001fb8:	43a3      	bics	r3, r4
  tmpccer |= (TIM_ICPolarity << 4U);
 8001fba:	0109      	lsls	r1, r1, #4
 8001fbc:	4319      	orrs	r1, r3

  /* Write to TIMx CCMR1 and CCER registers */
  TIMx->CCMR1 = tmpccmr1 ;
 8001fbe:	6182      	str	r2, [r0, #24]
  TIMx->CCER = tmpccer;
 8001fc0:	6201      	str	r1, [r0, #32]
}
 8001fc2:	bd30      	pop	{r4, r5, pc}
 8001fc4:	ffff0fff 	.word	0xffff0fff

08001fc8 <TIM_ITRx_SetConfig>:
static void TIM_ITRx_SetConfig(TIM_TypeDef *TIMx, uint32_t InputTriggerSource)
{
  uint32_t tmpsmcr;

  /* Get the TIMx SMCR register value */
  tmpsmcr = TIMx->SMCR;
 8001fc8:	6883      	ldr	r3, [r0, #8]
  /* Reset the TS Bits */
  tmpsmcr &= ~TIM_SMCR_TS;
 8001fca:	4a03      	ldr	r2, [pc, #12]	; (8001fd8 <TIM_ITRx_SetConfig+0x10>)
 8001fcc:	4013      	ands	r3, r2
  /* Set the Input Trigger source and the slave mode*/
  tmpsmcr |= (InputTriggerSource | TIM_SLAVEMODE_EXTERNAL1);
 8001fce:	430b      	orrs	r3, r1
 8001fd0:	2107      	movs	r1, #7
 8001fd2:	430b      	orrs	r3, r1
  /* Write to TIMx SMCR */
  TIMx->SMCR = tmpsmcr;
 8001fd4:	6083      	str	r3, [r0, #8]
}
 8001fd6:	4770      	bx	lr
 8001fd8:	ffcfff8f 	.word	0xffcfff8f

08001fdc <HAL_TIM_PWM_MspInit>:
}
 8001fdc:	4770      	bx	lr

08001fde <TIM_DMADelayPulseCplt>:
{
 8001fde:	b510      	push	{r4, lr}
  TIM_HandleTypeDef *htim = (TIM_HandleTypeDef *)((DMA_HandleTypeDef *)hdma)->Parent;
 8001fe0:	6a84      	ldr	r4, [r0, #40]	; 0x28
  if (hdma == htim->hdma[TIM_DMA_ID_CC1])
 8001fe2:	6a63      	ldr	r3, [r4, #36]	; 0x24
 8001fe4:	4283      	cmp	r3, r0
 8001fe6:	d00e      	beq.n	8002006 <TIM_DMADelayPulseCplt+0x28>
  else if (hdma == htim->hdma[TIM_DMA_ID_CC2])
 8001fe8:	6aa3      	ldr	r3, [r4, #40]	; 0x28
 8001fea:	4283      	cmp	r3, r0
 8001fec:	d014      	beq.n	8002018 <TIM_DMADelayPulseCplt+0x3a>
  else if (hdma == htim->hdma[TIM_DMA_ID_CC3])
 8001fee:	6ae3      	ldr	r3, [r4, #44]	; 0x2c
 8001ff0:	4283      	cmp	r3, r0
 8001ff2:	d01a      	beq.n	800202a <TIM_DMADelayPulseCplt+0x4c>
  else if (hdma == htim->hdma[TIM_DMA_ID_CC4])
 8001ff4:	6b23      	ldr	r3, [r4, #48]	; 0x30
 8001ff6:	4283      	cmp	r3, r0
 8001ff8:	d020      	beq.n	800203c <TIM_DMADelayPulseCplt+0x5e>
  HAL_TIM_PWM_PulseFinishedCallback(htim);
 8001ffa:	0020      	movs	r0, r4
 8001ffc:	f7fe f9e6 	bl	80003cc <HAL_TIM_PWM_PulseFinishedCallback>
  htim->Channel = HAL_TIM_ACTIVE_CHANNEL_CLEARED;
 8002000:	2300      	movs	r3, #0
 8002002:	7723      	strb	r3, [r4, #28]
}
 8002004:	bd10      	pop	{r4, pc}
    htim->Channel = HAL_TIM_ACTIVE_CHANNEL_1;
 8002006:	2301      	movs	r3, #1
 8002008:	7723      	strb	r3, [r4, #28]
    if (hdma->Init.Mode == DMA_NORMAL)
 800200a:	69c3      	ldr	r3, [r0, #28]
 800200c:	2b00      	cmp	r3, #0
 800200e:	d1f4      	bne.n	8001ffa <TIM_DMADelayPulseCplt+0x1c>
      TIM_CHANNEL_STATE_SET(htim, TIM_CHANNEL_1, HAL_TIM_CHANNEL_STATE_READY);
 8002010:	333e      	adds	r3, #62	; 0x3e
 8002012:	2201      	movs	r2, #1
 8002014:	54e2      	strb	r2, [r4, r3]
 8002016:	e7f0      	b.n	8001ffa <TIM_DMADelayPulseCplt+0x1c>
    htim->Channel = HAL_TIM_ACTIVE_CHANNEL_2;
 8002018:	2302      	movs	r3, #2
 800201a:	7723      	strb	r3, [r4, #28]
    if (hdma->Init.Mode == DMA_NORMAL)
 800201c:	69c3      	ldr	r3, [r0, #28]
 800201e:	2b00      	cmp	r3, #0
 8002020:	d1eb      	bne.n	8001ffa <TIM_DMADelayPulseCplt+0x1c>
      TIM_CHANNEL_STATE_SET(htim, TIM_CHANNEL_2, HAL_TIM_CHANNEL_STATE_READY);
 8002022:	333f      	adds	r3, #63	; 0x3f
 8002024:	2201      	movs	r2, #1
 8002026:	54e2      	strb	r2, [r4, r3]
 8002028:	e7e7      	b.n	8001ffa <TIM_DMADelayPulseCplt+0x1c>
    htim->Channel = HAL_TIM_ACTIVE_CHANNEL_3;
 800202a:	2304      	movs	r3, #4
 800202c:	7723      	strb	r3, [r4, #28]
    if (hdma->Init.Mode == DMA_NORMAL)
 800202e:	69c3      	ldr	r3, [r0, #28]
 8002030:	2b00      	cmp	r3, #0
 8002032:	d1e2      	bne.n	8001ffa <TIM_DMADelayPulseCplt+0x1c>
      TIM_CHANNEL_STATE_SET(htim, TIM_CHANNEL_3, HAL_TIM_CHANNEL_STATE_READY);
 8002034:	3340      	adds	r3, #64	; 0x40
 8002036:	2201      	movs	r2, #1
 8002038:	54e2      	strb	r2, [r4, r3]
 800203a:	e7de      	b.n	8001ffa <TIM_DMADelayPulseCplt+0x1c>
    htim->Channel = HAL_TIM_ACTIVE_CHANNEL_4;
 800203c:	2308      	movs	r3, #8
 800203e:	7723      	strb	r3, [r4, #28]
    if (hdma->Init.Mode == DMA_NORMAL)
 8002040:	69c3      	ldr	r3, [r0, #28]
 8002042:	2b00      	cmp	r3, #0
 8002044:	d1d9      	bne.n	8001ffa <TIM_DMADelayPulseCplt+0x1c>
      TIM_CHANNEL_STATE_SET(htim, TIM_CHANNEL_4, HAL_TIM_CHANNEL_STATE_READY);
 8002046:	3341      	adds	r3, #65	; 0x41
 8002048:	2201      	movs	r2, #1
 800204a:	54e2      	strb	r2, [r4, r3]
 800204c:	e7d5      	b.n	8001ffa <TIM_DMADelayPulseCplt+0x1c>

0800204e <TIM_DMADelayPulseHalfCplt>:
{
 800204e:	b510      	push	{r4, lr}
  TIM_HandleTypeDef *htim = (TIM_HandleTypeDef *)((DMA_HandleTypeDef *)hdma)->Parent;
 8002050:	6a84      	ldr	r4, [r0, #40]	; 0x28
  if (hdma == htim->hdma[TIM_DMA_ID_CC1])
 8002052:	6a63      	ldr	r3, [r4, #36]	; 0x24
 8002054:	4283      	cmp	r3, r0
 8002056:	d00b      	beq.n	8002070 <TIM_DMADelayPulseHalfCplt+0x22>
  else if (hdma == htim->hdma[TIM_DMA_ID_CC2])
 8002058:	6aa3      	ldr	r3, [r4, #40]	; 0x28
 800205a:	4283      	cmp	r3, r0
 800205c:	d010      	beq.n	8002080 <TIM_DMADelayPulseHalfCplt+0x32>
  else if (hdma == htim->hdma[TIM_DMA_ID_CC3])
 800205e:	6ae3      	ldr	r3, [r4, #44]	; 0x2c
 8002060:	4283      	cmp	r3, r0
 8002062:	d010      	beq.n	8002086 <TIM_DMADelayPulseHalfCplt+0x38>
  else if (hdma == htim->hdma[TIM_DMA_ID_CC4])
 8002064:	6b23      	ldr	r3, [r4, #48]	; 0x30
 8002066:	4283      	cmp	r3, r0
 8002068:	d104      	bne.n	8002074 <TIM_DMADelayPulseHalfCplt+0x26>
    htim->Channel = HAL_TIM_ACTIVE_CHANNEL_4;
 800206a:	2308      	movs	r3, #8
 800206c:	7723      	strb	r3, [r4, #28]
 800206e:	e001      	b.n	8002074 <TIM_DMADelayPulseHalfCplt+0x26>
    htim->Channel = HAL_TIM_ACTIVE_CHANNEL_1;
 8002070:	2301      	movs	r3, #1
 8002072:	7723      	strb	r3, [r4, #28]
  HAL_TIM_PWM_PulseFinishedHalfCpltCallback(htim);
 8002074:	0020      	movs	r0, r4
 8002076:	f7fe f95f 	bl	8000338 <HAL_TIM_PWM_PulseFinishedHalfCpltCallback>
  htim->Channel = HAL_TIM_ACTIVE_CHANNEL_CLEARED;
 800207a:	2300      	movs	r3, #0
 800207c:	7723      	strb	r3, [r4, #28]
}
 800207e:	bd10      	pop	{r4, pc}
    htim->Channel = HAL_TIM_ACTIVE_CHANNEL_2;
 8002080:	2302      	movs	r3, #2
 8002082:	7723      	strb	r3, [r4, #28]
 8002084:	e7f6      	b.n	8002074 <TIM_DMADelayPulseHalfCplt+0x26>
    htim->Channel = HAL_TIM_ACTIVE_CHANNEL_3;
 8002086:	2304      	movs	r3, #4
 8002088:	7723      	strb	r3, [r4, #28]
 800208a:	e7f3      	b.n	8002074 <TIM_DMADelayPulseHalfCplt+0x26>

0800208c <HAL_TIM_ErrorCallback>:
}
 800208c:	4770      	bx	lr

0800208e <TIM_DMAError>:
{
 800208e:	b510      	push	{r4, lr}
  TIM_HandleTypeDef *htim = (TIM_HandleTypeDef *)((DMA_HandleTypeDef *)hdma)->Parent;
 8002090:	6a84      	ldr	r4, [r0, #40]	; 0x28
  if (hdma == htim->hdma[TIM_DMA_ID_CC1])
 8002092:	6a63      	ldr	r3, [r4, #36]	; 0x24
 8002094:	4283      	cmp	r3, r0
 8002096:	d00c      	beq.n	80020b2 <TIM_DMAError+0x24>
  else if (hdma == htim->hdma[TIM_DMA_ID_CC2])
 8002098:	6aa3      	ldr	r3, [r4, #40]	; 0x28
 800209a:	4283      	cmp	r3, r0
 800209c:	d013      	beq.n	80020c6 <TIM_DMAError+0x38>
  else if (hdma == htim->hdma[TIM_DMA_ID_CC3])
 800209e:	6ae3      	ldr	r3, [r4, #44]	; 0x2c
 80020a0:	4283      	cmp	r3, r0
 80020a2:	d016      	beq.n	80020d2 <TIM_DMAError+0x44>
  else if (hdma == htim->hdma[TIM_DMA_ID_CC4])
 80020a4:	6b23      	ldr	r3, [r4, #48]	; 0x30
 80020a6:	4283      	cmp	r3, r0
 80020a8:	d019      	beq.n	80020de <TIM_DMAError+0x50>
    htim->State = HAL_TIM_STATE_READY;
 80020aa:	233d      	movs	r3, #61	; 0x3d
 80020ac:	2201      	movs	r2, #1
 80020ae:	54e2      	strb	r2, [r4, r3]
 80020b0:	e003      	b.n	80020ba <TIM_DMAError+0x2c>
    htim->Channel = HAL_TIM_ACTIVE_CHANNEL_1;
 80020b2:	2301      	movs	r3, #1
 80020b4:	7723      	strb	r3, [r4, #28]
    TIM_CHANNEL_STATE_SET(htim, TIM_CHANNEL_1, HAL_TIM_CHANNEL_STATE_READY);
 80020b6:	223e      	movs	r2, #62	; 0x3e
 80020b8:	54a3      	strb	r3, [r4, r2]
  HAL_TIM_ErrorCallback(htim);
 80020ba:	0020      	movs	r0, r4
 80020bc:	f7ff ffe6 	bl	800208c <HAL_TIM_ErrorCallback>
  htim->Channel = HAL_TIM_ACTIVE_CHANNEL_CLEARED;
 80020c0:	2300      	movs	r3, #0
 80020c2:	7723      	strb	r3, [r4, #28]
}
 80020c4:	bd10      	pop	{r4, pc}
    htim->Channel = HAL_TIM_ACTIVE_CHANNEL_2;
 80020c6:	2302      	movs	r3, #2
 80020c8:	7723      	strb	r3, [r4, #28]
    TIM_CHANNEL_STATE_SET(htim, TIM_CHANNEL_2, HAL_TIM_CHANNEL_STATE_READY);
 80020ca:	333d      	adds	r3, #61	; 0x3d
 80020cc:	2201      	movs	r2, #1
 80020ce:	54e2      	strb	r2, [r4, r3]
 80020d0:	e7f3      	b.n	80020ba <TIM_DMAError+0x2c>
    htim->Channel = HAL_TIM_ACTIVE_CHANNEL_3;
 80020d2:	2304      	movs	r3, #4
 80020d4:	7723      	strb	r3, [r4, #28]
    TIM_CHANNEL_STATE_SET(htim, TIM_CHANNEL_3, HAL_TIM_CHANNEL_STATE_READY);
 80020d6:	333c      	adds	r3, #60	; 0x3c
 80020d8:	2201      	movs	r2, #1
 80020da:	54e2      	strb	r2, [r4, r3]
 80020dc:	e7ed      	b.n	80020ba <TIM_DMAError+0x2c>
    htim->Channel = HAL_TIM_ACTIVE_CHANNEL_4;
 80020de:	2308      	movs	r3, #8
 80020e0:	7723      	strb	r3, [r4, #28]
    TIM_CHANNEL_STATE_SET(htim, TIM_CHANNEL_4, HAL_TIM_CHANNEL_STATE_READY);
 80020e2:	3339      	adds	r3, #57	; 0x39
 80020e4:	2201      	movs	r2, #1
 80020e6:	54e2      	strb	r2, [r4, r3]
 80020e8:	e7e7      	b.n	80020ba <TIM_DMAError+0x2c>
	...

080020ec <TIM_Base_SetConfig>:
  tmpcr1 = TIMx->CR1;
 80020ec:	6803      	ldr	r3, [r0, #0]
  if (IS_TIM_COUNTER_MODE_SELECT_INSTANCE(TIMx))
 80020ee:	4a1e      	ldr	r2, [pc, #120]	; (8002168 <TIM_Base_SetConfig+0x7c>)
 80020f0:	4290      	cmp	r0, r2
 80020f2:	d006      	beq.n	8002102 <TIM_Base_SetConfig+0x16>
 80020f4:	2280      	movs	r2, #128	; 0x80
 80020f6:	05d2      	lsls	r2, r2, #23
 80020f8:	4290      	cmp	r0, r2
 80020fa:	d002      	beq.n	8002102 <TIM_Base_SetConfig+0x16>
 80020fc:	4a1b      	ldr	r2, [pc, #108]	; (800216c <TIM_Base_SetConfig+0x80>)
 80020fe:	4290      	cmp	r0, r2
 8002100:	d103      	bne.n	800210a <TIM_Base_SetConfig+0x1e>
    tmpcr1 &= ~(TIM_CR1_DIR | TIM_CR1_CMS);
 8002102:	2270      	movs	r2, #112	; 0x70
 8002104:	4393      	bics	r3, r2
    tmpcr1 |= Structure->CounterMode;
 8002106:	684a      	ldr	r2, [r1, #4]
 8002108:	4313      	orrs	r3, r2
  if (IS_TIM_CLOCK_DIVISION_INSTANCE(TIMx))
 800210a:	4a17      	ldr	r2, [pc, #92]	; (8002168 <TIM_Base_SetConfig+0x7c>)
 800210c:	4290      	cmp	r0, r2
 800210e:	d00f      	beq.n	8002130 <TIM_Base_SetConfig+0x44>
 8002110:	2280      	movs	r2, #128	; 0x80
 8002112:	05d2      	lsls	r2, r2, #23
 8002114:	4290      	cmp	r0, r2
 8002116:	d00b      	beq.n	8002130 <TIM_Base_SetConfig+0x44>
 8002118:	4a14      	ldr	r2, [pc, #80]	; (800216c <TIM_Base_SetConfig+0x80>)
 800211a:	4290      	cmp	r0, r2
 800211c:	d008      	beq.n	8002130 <TIM_Base_SetConfig+0x44>
 800211e:	4a14      	ldr	r2, [pc, #80]	; (8002170 <TIM_Base_SetConfig+0x84>)
 8002120:	4290      	cmp	r0, r2
 8002122:	d005      	beq.n	8002130 <TIM_Base_SetConfig+0x44>
 8002124:	4a13      	ldr	r2, [pc, #76]	; (8002174 <TIM_Base_SetConfig+0x88>)
 8002126:	4290      	cmp	r0, r2
 8002128:	d002      	beq.n	8002130 <TIM_Base_SetConfig+0x44>
 800212a:	4a13      	ldr	r2, [pc, #76]	; (8002178 <TIM_Base_SetConfig+0x8c>)
 800212c:	4290      	cmp	r0, r2
 800212e:	d103      	bne.n	8002138 <TIM_Base_SetConfig+0x4c>
    tmpcr1 &= ~TIM_CR1_CKD;
 8002130:	4a12      	ldr	r2, [pc, #72]	; (800217c <TIM_Base_SetConfig+0x90>)
 8002132:	4013      	ands	r3, r2
    tmpcr1 |= (uint32_t)Structure->ClockDivision;
 8002134:	68ca      	ldr	r2, [r1, #12]
 8002136:	4313      	orrs	r3, r2
  MODIFY_REG(tmpcr1, TIM_CR1_ARPE, Structure->AutoReloadPreload);
 8002138:	2280      	movs	r2, #128	; 0x80
 800213a:	4393      	bics	r3, r2
 800213c:	694a      	ldr	r2, [r1, #20]
 800213e:	4313      	orrs	r3, r2
  TIMx->CR1 = tmpcr1;
 8002140:	6003      	str	r3, [r0, #0]
  TIMx->ARR = (uint32_t)Structure->Period ;
 8002142:	688b      	ldr	r3, [r1, #8]
 8002144:	62c3      	str	r3, [r0, #44]	; 0x2c
  TIMx->PSC = Structure->Prescaler;
 8002146:	680b      	ldr	r3, [r1, #0]
 8002148:	6283      	str	r3, [r0, #40]	; 0x28
  if (IS_TIM_REPETITION_COUNTER_INSTANCE(TIMx))
 800214a:	4b07      	ldr	r3, [pc, #28]	; (8002168 <TIM_Base_SetConfig+0x7c>)
 800214c:	4298      	cmp	r0, r3
 800214e:	d005      	beq.n	800215c <TIM_Base_SetConfig+0x70>
 8002150:	4b08      	ldr	r3, [pc, #32]	; (8002174 <TIM_Base_SetConfig+0x88>)
 8002152:	4298      	cmp	r0, r3
 8002154:	d002      	beq.n	800215c <TIM_Base_SetConfig+0x70>
 8002156:	4b08      	ldr	r3, [pc, #32]	; (8002178 <TIM_Base_SetConfig+0x8c>)
 8002158:	4298      	cmp	r0, r3
 800215a:	d101      	bne.n	8002160 <TIM_Base_SetConfig+0x74>
    TIMx->RCR = Structure->RepetitionCounter;
 800215c:	690b      	ldr	r3, [r1, #16]
 800215e:	6303      	str	r3, [r0, #48]	; 0x30
  TIMx->EGR = TIM_EGR_UG;
 8002160:	2301      	movs	r3, #1
 8002162:	6143      	str	r3, [r0, #20]
}
 8002164:	4770      	bx	lr
 8002166:	46c0      	nop			; (mov r8, r8)
 8002168:	40012c00 	.word	0x40012c00
 800216c:	40000400 	.word	0x40000400
 8002170:	40002000 	.word	0x40002000
 8002174:	40014400 	.word	0x40014400
 8002178:	40014800 	.word	0x40014800
 800217c:	fffffcff 	.word	0xfffffcff

08002180 <HAL_TIM_Base_Init>:
{
 8002180:	b570      	push	{r4, r5, r6, lr}
 8002182:	1e04      	subs	r4, r0, #0
  if (htim == NULL)
 8002184:	d02a      	beq.n	80021dc <HAL_TIM_Base_Init+0x5c>
  if (htim->State == HAL_TIM_STATE_RESET)
 8002186:	233d      	movs	r3, #61	; 0x3d
 8002188:	5cc3      	ldrb	r3, [r0, r3]
 800218a:	2b00      	cmp	r3, #0
 800218c:	d020      	beq.n	80021d0 <HAL_TIM_Base_Init+0x50>
  htim->State = HAL_TIM_STATE_BUSY;
 800218e:	253d      	movs	r5, #61	; 0x3d
 8002190:	2302      	movs	r3, #2
 8002192:	5563      	strb	r3, [r4, r5]
  TIM_Base_SetConfig(htim->Instance, &htim->Init);
 8002194:	0021      	movs	r1, r4
 8002196:	c901      	ldmia	r1!, {r0}
 8002198:	f7ff ffa8 	bl	80020ec <TIM_Base_SetConfig>
  htim->DMABurstState = HAL_DMA_BURST_STATE_READY;
 800219c:	2301      	movs	r3, #1
 800219e:	2248      	movs	r2, #72	; 0x48
 80021a0:	54a3      	strb	r3, [r4, r2]
  TIM_CHANNEL_STATE_SET_ALL(htim, HAL_TIM_CHANNEL_STATE_READY);
 80021a2:	3a0a      	subs	r2, #10
 80021a4:	54a3      	strb	r3, [r4, r2]
 80021a6:	3201      	adds	r2, #1
 80021a8:	54a3      	strb	r3, [r4, r2]
 80021aa:	3201      	adds	r2, #1
 80021ac:	54a3      	strb	r3, [r4, r2]
 80021ae:	3201      	adds	r2, #1
 80021b0:	54a3      	strb	r3, [r4, r2]
 80021b2:	3201      	adds	r2, #1
 80021b4:	54a3      	strb	r3, [r4, r2]
 80021b6:	3201      	adds	r2, #1
 80021b8:	54a3      	strb	r3, [r4, r2]
  TIM_CHANNEL_N_STATE_SET_ALL(htim, HAL_TIM_CHANNEL_STATE_READY);
 80021ba:	3201      	adds	r2, #1
 80021bc:	54a3      	strb	r3, [r4, r2]
 80021be:	3201      	adds	r2, #1
 80021c0:	54a3      	strb	r3, [r4, r2]
 80021c2:	3201      	adds	r2, #1
 80021c4:	54a3      	strb	r3, [r4, r2]
 80021c6:	3201      	adds	r2, #1
 80021c8:	54a3      	strb	r3, [r4, r2]
  htim->State = HAL_TIM_STATE_READY;
 80021ca:	5563      	strb	r3, [r4, r5]
  return HAL_OK;
 80021cc:	2000      	movs	r0, #0
}
 80021ce:	bd70      	pop	{r4, r5, r6, pc}
    htim->Lock = HAL_UNLOCKED;
 80021d0:	333c      	adds	r3, #60	; 0x3c
 80021d2:	2200      	movs	r2, #0
 80021d4:	54c2      	strb	r2, [r0, r3]
    HAL_TIM_Base_MspInit(htim);
 80021d6:	f7fe fc19 	bl	8000a0c <HAL_TIM_Base_MspInit>
 80021da:	e7d8      	b.n	800218e <HAL_TIM_Base_Init+0xe>
    return HAL_ERROR;
 80021dc:	2001      	movs	r0, #1
 80021de:	e7f6      	b.n	80021ce <HAL_TIM_Base_Init+0x4e>

080021e0 <HAL_TIM_PWM_Init>:
{
 80021e0:	b570      	push	{r4, r5, r6, lr}
 80021e2:	1e04      	subs	r4, r0, #0
  if (htim == NULL)
 80021e4:	d02a      	beq.n	800223c <HAL_TIM_PWM_Init+0x5c>
  if (htim->State == HAL_TIM_STATE_RESET)
 80021e6:	233d      	movs	r3, #61	; 0x3d
 80021e8:	5cc3      	ldrb	r3, [r0, r3]
 80021ea:	2b00      	cmp	r3, #0
 80021ec:	d020      	beq.n	8002230 <HAL_TIM_PWM_Init+0x50>
  htim->State = HAL_TIM_STATE_BUSY;
 80021ee:	253d      	movs	r5, #61	; 0x3d
 80021f0:	2302      	movs	r3, #2
 80021f2:	5563      	strb	r3, [r4, r5]
  TIM_Base_SetConfig(htim->Instance, &htim->Init);
 80021f4:	0021      	movs	r1, r4
 80021f6:	c901      	ldmia	r1!, {r0}
 80021f8:	f7ff ff78 	bl	80020ec <TIM_Base_SetConfig>
  htim->DMABurstState = HAL_DMA_BURST_STATE_READY;
 80021fc:	2301      	movs	r3, #1
 80021fe:	2248      	movs	r2, #72	; 0x48
 8002200:	54a3      	strb	r3, [r4, r2]
  TIM_CHANNEL_STATE_SET_ALL(htim, HAL_TIM_CHANNEL_STATE_READY);
 8002202:	3a0a      	subs	r2, #10
 8002204:	54a3      	strb	r3, [r4, r2]
 8002206:	3201      	adds	r2, #1
 8002208:	54a3      	strb	r3, [r4, r2]
 800220a:	3201      	adds	r2, #1
 800220c:	54a3      	strb	r3, [r4, r2]
 800220e:	3201      	adds	r2, #1
 8002210:	54a3      	strb	r3, [r4, r2]
 8002212:	3201      	adds	r2, #1
 8002214:	54a3      	strb	r3, [r4, r2]
 8002216:	3201      	adds	r2, #1
 8002218:	54a3      	strb	r3, [r4, r2]
  TIM_CHANNEL_N_STATE_SET_ALL(htim, HAL_TIM_CHANNEL_STATE_READY);
 800221a:	3201      	adds	r2, #1
 800221c:	54a3      	strb	r3, [r4, r2]
 800221e:	3201      	adds	r2, #1
 8002220:	54a3      	strb	r3, [r4, r2]
 8002222:	3201      	adds	r2, #1
 8002224:	54a3      	strb	r3, [r4, r2]
 8002226:	3201      	adds	r2, #1
 8002228:	54a3      	strb	r3, [r4, r2]
  htim->State = HAL_TIM_STATE_READY;
 800222a:	5563      	strb	r3, [r4, r5]
  return HAL_OK;
 800222c:	2000      	movs	r0, #0
}
 800222e:	bd70      	pop	{r4, r5, r6, pc}
    htim->Lock = HAL_UNLOCKED;
 8002230:	333c      	adds	r3, #60	; 0x3c
 8002232:	2200      	movs	r2, #0
 8002234:	54c2      	strb	r2, [r0, r3]
    HAL_TIM_PWM_MspInit(htim);
 8002236:	f7ff fed1 	bl	8001fdc <HAL_TIM_PWM_MspInit>
 800223a:	e7d8      	b.n	80021ee <HAL_TIM_PWM_Init+0xe>
    return HAL_ERROR;
 800223c:	2001      	movs	r0, #1
 800223e:	e7f6      	b.n	800222e <HAL_TIM_PWM_Init+0x4e>

08002240 <TIM_OC2_SetConfig>:
{
 8002240:	b530      	push	{r4, r5, lr}
  TIMx->CCER &= ~TIM_CCER_CC2E;
 8002242:	6a03      	ldr	r3, [r0, #32]
 8002244:	2210      	movs	r2, #16
 8002246:	4393      	bics	r3, r2
 8002248:	6203      	str	r3, [r0, #32]
  tmpccer = TIMx->CCER;
 800224a:	6a03      	ldr	r3, [r0, #32]
  tmpcr2 =  TIMx->CR2;
 800224c:	6845      	ldr	r5, [r0, #4]
  tmpccmrx = TIMx->CCMR1;
 800224e:	6984      	ldr	r4, [r0, #24]
  tmpccmrx &= ~TIM_CCMR1_CC2S;
 8002250:	4a16      	ldr	r2, [pc, #88]	; (80022ac <TIM_OC2_SetConfig+0x6c>)
 8002252:	4014      	ands	r4, r2
  tmpccmrx |= (OC_Config->OCMode << 8U);
 8002254:	680a      	ldr	r2, [r1, #0]
 8002256:	0212      	lsls	r2, r2, #8
 8002258:	4314      	orrs	r4, r2
  tmpccer &= ~TIM_CCER_CC2P;
 800225a:	2220      	movs	r2, #32
 800225c:	4393      	bics	r3, r2
  tmpccer |= (OC_Config->OCPolarity << 4U);
 800225e:	688a      	ldr	r2, [r1, #8]
 8002260:	0112      	lsls	r2, r2, #4
 8002262:	4313      	orrs	r3, r2
  if (IS_TIM_CCXN_INSTANCE(TIMx, TIM_CHANNEL_2))
 8002264:	4a12      	ldr	r2, [pc, #72]	; (80022b0 <TIM_OC2_SetConfig+0x70>)
 8002266:	4290      	cmp	r0, r2
 8002268:	d016      	beq.n	8002298 <TIM_OC2_SetConfig+0x58>
  if (IS_TIM_BREAK_INSTANCE(TIMx))
 800226a:	4a11      	ldr	r2, [pc, #68]	; (80022b0 <TIM_OC2_SetConfig+0x70>)
 800226c:	4290      	cmp	r0, r2
 800226e:	d005      	beq.n	800227c <TIM_OC2_SetConfig+0x3c>
 8002270:	4a10      	ldr	r2, [pc, #64]	; (80022b4 <TIM_OC2_SetConfig+0x74>)
 8002272:	4290      	cmp	r0, r2
 8002274:	d002      	beq.n	800227c <TIM_OC2_SetConfig+0x3c>
 8002276:	4a10      	ldr	r2, [pc, #64]	; (80022b8 <TIM_OC2_SetConfig+0x78>)
 8002278:	4290      	cmp	r0, r2
 800227a:	d107      	bne.n	800228c <TIM_OC2_SetConfig+0x4c>
    tmpcr2 &= ~TIM_CR2_OIS2N;
 800227c:	4a0f      	ldr	r2, [pc, #60]	; (80022bc <TIM_OC2_SetConfig+0x7c>)
 800227e:	402a      	ands	r2, r5
    tmpcr2 |= (OC_Config->OCIdleState << 2U);
 8002280:	694d      	ldr	r5, [r1, #20]
 8002282:	00ad      	lsls	r5, r5, #2
 8002284:	4315      	orrs	r5, r2
    tmpcr2 |= (OC_Config->OCNIdleState << 2U);
 8002286:	698a      	ldr	r2, [r1, #24]
 8002288:	0092      	lsls	r2, r2, #2
 800228a:	4315      	orrs	r5, r2
  TIMx->CR2 = tmpcr2;
 800228c:	6045      	str	r5, [r0, #4]
  TIMx->CCMR1 = tmpccmrx;
 800228e:	6184      	str	r4, [r0, #24]
  TIMx->CCR2 = OC_Config->Pulse;
 8002290:	684a      	ldr	r2, [r1, #4]
 8002292:	6382      	str	r2, [r0, #56]	; 0x38
  TIMx->CCER = tmpccer;
 8002294:	6203      	str	r3, [r0, #32]
}
 8002296:	bd30      	pop	{r4, r5, pc}
    tmpccer &= ~TIM_CCER_CC2NP;
 8002298:	2280      	movs	r2, #128	; 0x80
 800229a:	4393      	bics	r3, r2
 800229c:	001a      	movs	r2, r3
    tmpccer |= (OC_Config->OCNPolarity << 4U);
 800229e:	68cb      	ldr	r3, [r1, #12]
 80022a0:	011b      	lsls	r3, r3, #4
 80022a2:	4313      	orrs	r3, r2
    tmpccer &= ~TIM_CCER_CC2NE;
 80022a4:	2240      	movs	r2, #64	; 0x40
 80022a6:	4393      	bics	r3, r2
 80022a8:	e7df      	b.n	800226a <TIM_OC2_SetConfig+0x2a>
 80022aa:	46c0      	nop			; (mov r8, r8)
 80022ac:	feff8cff 	.word	0xfeff8cff
 80022b0:	40012c00 	.word	0x40012c00
 80022b4:	40014400 	.word	0x40014400
 80022b8:	40014800 	.word	0x40014800
 80022bc:	fffff3ff 	.word	0xfffff3ff

080022c0 <HAL_TIM_PWM_ConfigChannel>:
{
 80022c0:	b570      	push	{r4, r5, r6, lr}
 80022c2:	0004      	movs	r4, r0
 80022c4:	000d      	movs	r5, r1
  __HAL_LOCK(htim);
 80022c6:	233c      	movs	r3, #60	; 0x3c
 80022c8:	5cc3      	ldrb	r3, [r0, r3]
 80022ca:	2b01      	cmp	r3, #1
 80022cc:	d100      	bne.n	80022d0 <HAL_TIM_PWM_ConfigChannel+0x10>
 80022ce:	e092      	b.n	80023f6 <HAL_TIM_PWM_ConfigChannel+0x136>
 80022d0:	233c      	movs	r3, #60	; 0x3c
 80022d2:	2101      	movs	r1, #1
 80022d4:	54c1      	strb	r1, [r0, r3]
  switch (Channel)
 80022d6:	2a14      	cmp	r2, #20
 80022d8:	d900      	bls.n	80022dc <HAL_TIM_PWM_ConfigChannel+0x1c>
 80022da:	e087      	b.n	80023ec <HAL_TIM_PWM_ConfigChannel+0x12c>
 80022dc:	0092      	lsls	r2, r2, #2
 80022de:	4b47      	ldr	r3, [pc, #284]	; (80023fc <HAL_TIM_PWM_ConfigChannel+0x13c>)
 80022e0:	589b      	ldr	r3, [r3, r2]
 80022e2:	469f      	mov	pc, r3
      TIM_OC1_SetConfig(htim->Instance, sConfig);
 80022e4:	0029      	movs	r1, r5
 80022e6:	6800      	ldr	r0, [r0, #0]
 80022e8:	f7ff fd2a 	bl	8001d40 <TIM_OC1_SetConfig>
      htim->Instance->CCMR1 |= TIM_CCMR1_OC1PE;
 80022ec:	6822      	ldr	r2, [r4, #0]
 80022ee:	6993      	ldr	r3, [r2, #24]
 80022f0:	2108      	movs	r1, #8
 80022f2:	430b      	orrs	r3, r1
 80022f4:	6193      	str	r3, [r2, #24]
      htim->Instance->CCMR1 &= ~TIM_CCMR1_OC1FE;
 80022f6:	6822      	ldr	r2, [r4, #0]
 80022f8:	6993      	ldr	r3, [r2, #24]
 80022fa:	3904      	subs	r1, #4
 80022fc:	438b      	bics	r3, r1
 80022fe:	6193      	str	r3, [r2, #24]
      htim->Instance->CCMR1 |= sConfig->OCFastMode;
 8002300:	6822      	ldr	r2, [r4, #0]
 8002302:	6993      	ldr	r3, [r2, #24]
 8002304:	6929      	ldr	r1, [r5, #16]
 8002306:	430b      	orrs	r3, r1
 8002308:	6193      	str	r3, [r2, #24]
  HAL_StatusTypeDef status = HAL_OK;
 800230a:	2000      	movs	r0, #0
      break;
 800230c:	e06f      	b.n	80023ee <HAL_TIM_PWM_ConfigChannel+0x12e>
      TIM_OC2_SetConfig(htim->Instance, sConfig);
 800230e:	0029      	movs	r1, r5
 8002310:	6800      	ldr	r0, [r0, #0]
 8002312:	f7ff ff95 	bl	8002240 <TIM_OC2_SetConfig>
      htim->Instance->CCMR1 |= TIM_CCMR1_OC2PE;
 8002316:	6822      	ldr	r2, [r4, #0]
 8002318:	6991      	ldr	r1, [r2, #24]
 800231a:	2380      	movs	r3, #128	; 0x80
 800231c:	011b      	lsls	r3, r3, #4
 800231e:	430b      	orrs	r3, r1
 8002320:	6193      	str	r3, [r2, #24]
      htim->Instance->CCMR1 &= ~TIM_CCMR1_OC2FE;
 8002322:	6822      	ldr	r2, [r4, #0]
 8002324:	6993      	ldr	r3, [r2, #24]
 8002326:	4936      	ldr	r1, [pc, #216]	; (8002400 <HAL_TIM_PWM_ConfigChannel+0x140>)
 8002328:	400b      	ands	r3, r1
 800232a:	6193      	str	r3, [r2, #24]
      htim->Instance->CCMR1 |= sConfig->OCFastMode << 8U;
 800232c:	6821      	ldr	r1, [r4, #0]
 800232e:	698b      	ldr	r3, [r1, #24]
 8002330:	692a      	ldr	r2, [r5, #16]
 8002332:	0212      	lsls	r2, r2, #8
 8002334:	4313      	orrs	r3, r2
 8002336:	618b      	str	r3, [r1, #24]
  HAL_StatusTypeDef status = HAL_OK;
 8002338:	2000      	movs	r0, #0
      break;
 800233a:	e058      	b.n	80023ee <HAL_TIM_PWM_ConfigChannel+0x12e>
      TIM_OC3_SetConfig(htim->Instance, sConfig);
 800233c:	0029      	movs	r1, r5
 800233e:	6800      	ldr	r0, [r0, #0]
 8002340:	f7ff fd3c 	bl	8001dbc <TIM_OC3_SetConfig>
      htim->Instance->CCMR2 |= TIM_CCMR2_OC3PE;
 8002344:	6822      	ldr	r2, [r4, #0]
 8002346:	69d3      	ldr	r3, [r2, #28]
 8002348:	2108      	movs	r1, #8
 800234a:	430b      	orrs	r3, r1
 800234c:	61d3      	str	r3, [r2, #28]
      htim->Instance->CCMR2 &= ~TIM_CCMR2_OC3FE;
 800234e:	6822      	ldr	r2, [r4, #0]
 8002350:	69d3      	ldr	r3, [r2, #28]
 8002352:	3904      	subs	r1, #4
 8002354:	438b      	bics	r3, r1
 8002356:	61d3      	str	r3, [r2, #28]
      htim->Instance->CCMR2 |= sConfig->OCFastMode;
 8002358:	6822      	ldr	r2, [r4, #0]
 800235a:	69d3      	ldr	r3, [r2, #28]
 800235c:	6929      	ldr	r1, [r5, #16]
 800235e:	430b      	orrs	r3, r1
 8002360:	61d3      	str	r3, [r2, #28]
  HAL_StatusTypeDef status = HAL_OK;
 8002362:	2000      	movs	r0, #0
      break;
 8002364:	e043      	b.n	80023ee <HAL_TIM_PWM_ConfigChannel+0x12e>
      TIM_OC4_SetConfig(htim->Instance, sConfig);
 8002366:	0029      	movs	r1, r5
 8002368:	6800      	ldr	r0, [r0, #0]
 800236a:	f7ff fd6d 	bl	8001e48 <TIM_OC4_SetConfig>
      htim->Instance->CCMR2 |= TIM_CCMR2_OC4PE;
 800236e:	6822      	ldr	r2, [r4, #0]
 8002370:	69d1      	ldr	r1, [r2, #28]
 8002372:	2380      	movs	r3, #128	; 0x80
 8002374:	011b      	lsls	r3, r3, #4
 8002376:	430b      	orrs	r3, r1
 8002378:	61d3      	str	r3, [r2, #28]
      htim->Instance->CCMR2 &= ~TIM_CCMR2_OC4FE;
 800237a:	6822      	ldr	r2, [r4, #0]
 800237c:	69d3      	ldr	r3, [r2, #28]
 800237e:	4920      	ldr	r1, [pc, #128]	; (8002400 <HAL_TIM_PWM_ConfigChannel+0x140>)
 8002380:	400b      	ands	r3, r1
 8002382:	61d3      	str	r3, [r2, #28]
      htim->Instance->CCMR2 |= sConfig->OCFastMode << 8U;
 8002384:	6821      	ldr	r1, [r4, #0]
 8002386:	69cb      	ldr	r3, [r1, #28]
 8002388:	692a      	ldr	r2, [r5, #16]
 800238a:	0212      	lsls	r2, r2, #8
 800238c:	4313      	orrs	r3, r2
 800238e:	61cb      	str	r3, [r1, #28]
  HAL_StatusTypeDef status = HAL_OK;
 8002390:	2000      	movs	r0, #0
      break;
 8002392:	e02c      	b.n	80023ee <HAL_TIM_PWM_ConfigChannel+0x12e>
      TIM_OC5_SetConfig(htim->Instance, sConfig);
 8002394:	0029      	movs	r1, r5
 8002396:	6800      	ldr	r0, [r0, #0]
 8002398:	f7ff fd8a 	bl	8001eb0 <TIM_OC5_SetConfig>
      htim->Instance->CCMR3 |= TIM_CCMR3_OC5PE;
 800239c:	6822      	ldr	r2, [r4, #0]
 800239e:	6d53      	ldr	r3, [r2, #84]	; 0x54
 80023a0:	2108      	movs	r1, #8
 80023a2:	430b      	orrs	r3, r1
 80023a4:	6553      	str	r3, [r2, #84]	; 0x54
      htim->Instance->CCMR3 &= ~TIM_CCMR3_OC5FE;
 80023a6:	6822      	ldr	r2, [r4, #0]
 80023a8:	6d53      	ldr	r3, [r2, #84]	; 0x54
 80023aa:	3904      	subs	r1, #4
 80023ac:	438b      	bics	r3, r1
 80023ae:	6553      	str	r3, [r2, #84]	; 0x54
      htim->Instance->CCMR3 |= sConfig->OCFastMode;
 80023b0:	6822      	ldr	r2, [r4, #0]
 80023b2:	6d53      	ldr	r3, [r2, #84]	; 0x54
 80023b4:	6929      	ldr	r1, [r5, #16]
 80023b6:	430b      	orrs	r3, r1
 80023b8:	6553      	str	r3, [r2, #84]	; 0x54
  HAL_StatusTypeDef status = HAL_OK;
 80023ba:	2000      	movs	r0, #0
      break;
 80023bc:	e017      	b.n	80023ee <HAL_TIM_PWM_ConfigChannel+0x12e>
      TIM_OC6_SetConfig(htim->Instance, sConfig);
 80023be:	0029      	movs	r1, r5
 80023c0:	6800      	ldr	r0, [r0, #0]
 80023c2:	f7ff fda7 	bl	8001f14 <TIM_OC6_SetConfig>
      htim->Instance->CCMR3 |= TIM_CCMR3_OC6PE;
 80023c6:	6822      	ldr	r2, [r4, #0]
 80023c8:	6d51      	ldr	r1, [r2, #84]	; 0x54
 80023ca:	2380      	movs	r3, #128	; 0x80
 80023cc:	011b      	lsls	r3, r3, #4
 80023ce:	430b      	orrs	r3, r1
 80023d0:	6553      	str	r3, [r2, #84]	; 0x54
      htim->Instance->CCMR3 &= ~TIM_CCMR3_OC6FE;
 80023d2:	6822      	ldr	r2, [r4, #0]
 80023d4:	6d53      	ldr	r3, [r2, #84]	; 0x54
 80023d6:	490a      	ldr	r1, [pc, #40]	; (8002400 <HAL_TIM_PWM_ConfigChannel+0x140>)
 80023d8:	400b      	ands	r3, r1
 80023da:	6553      	str	r3, [r2, #84]	; 0x54
      htim->Instance->CCMR3 |= sConfig->OCFastMode << 8U;
 80023dc:	6821      	ldr	r1, [r4, #0]
 80023de:	6d4b      	ldr	r3, [r1, #84]	; 0x54
 80023e0:	692a      	ldr	r2, [r5, #16]
 80023e2:	0212      	lsls	r2, r2, #8
 80023e4:	4313      	orrs	r3, r2
 80023e6:	654b      	str	r3, [r1, #84]	; 0x54
  HAL_StatusTypeDef status = HAL_OK;
 80023e8:	2000      	movs	r0, #0
      break;
 80023ea:	e000      	b.n	80023ee <HAL_TIM_PWM_ConfigChannel+0x12e>
  __HAL_LOCK(htim);
 80023ec:	2001      	movs	r0, #1
  __HAL_UNLOCK(htim);
 80023ee:	233c      	movs	r3, #60	; 0x3c
 80023f0:	2200      	movs	r2, #0
 80023f2:	54e2      	strb	r2, [r4, r3]
}
 80023f4:	bd70      	pop	{r4, r5, r6, pc}
  __HAL_LOCK(htim);
 80023f6:	2002      	movs	r0, #2
 80023f8:	e7fc      	b.n	80023f4 <HAL_TIM_PWM_ConfigChannel+0x134>
 80023fa:	46c0      	nop			; (mov r8, r8)
 80023fc:	08002b30 	.word	0x08002b30
 8002400:	fffffbff 	.word	0xfffffbff

08002404 <TIM_ETR_SetConfig>:
  *          This parameter must be a value between 0x00 and 0x0F
  * @retval None
  */
void TIM_ETR_SetConfig(TIM_TypeDef *TIMx, uint32_t TIM_ExtTRGPrescaler,
                       uint32_t TIM_ExtTRGPolarity, uint32_t ExtTRGFilter)
{
 8002404:	b530      	push	{r4, r5, lr}
  uint32_t tmpsmcr;

  tmpsmcr = TIMx->SMCR;
 8002406:	6884      	ldr	r4, [r0, #8]

  /* Reset the ETR Bits */
  tmpsmcr &= ~(TIM_SMCR_ETF | TIM_SMCR_ETPS | TIM_SMCR_ECE | TIM_SMCR_ETP);
 8002408:	4d03      	ldr	r5, [pc, #12]	; (8002418 <TIM_ETR_SetConfig+0x14>)
 800240a:	402c      	ands	r4, r5

  /* Set the Prescaler, the Filter value and the Polarity */
  tmpsmcr |= (uint32_t)(TIM_ExtTRGPrescaler | (TIM_ExtTRGPolarity | (ExtTRGFilter << 8U)));
 800240c:	021b      	lsls	r3, r3, #8
 800240e:	4313      	orrs	r3, r2
 8002410:	430b      	orrs	r3, r1
 8002412:	4323      	orrs	r3, r4

  /* Write to TIMx SMCR */
  TIMx->SMCR = tmpsmcr;
 8002414:	6083      	str	r3, [r0, #8]
}
 8002416:	bd30      	pop	{r4, r5, pc}
 8002418:	ffff00ff 	.word	0xffff00ff

0800241c <HAL_TIM_ConfigClockSource>:
{
 800241c:	b510      	push	{r4, lr}
 800241e:	0004      	movs	r4, r0
  __HAL_LOCK(htim);
 8002420:	233c      	movs	r3, #60	; 0x3c
 8002422:	5cc3      	ldrb	r3, [r0, r3]
 8002424:	2b01      	cmp	r3, #1
 8002426:	d100      	bne.n	800242a <HAL_TIM_ConfigClockSource+0xe>
 8002428:	e078      	b.n	800251c <HAL_TIM_ConfigClockSource+0x100>
 800242a:	233c      	movs	r3, #60	; 0x3c
 800242c:	2201      	movs	r2, #1
 800242e:	54c2      	strb	r2, [r0, r3]
  htim->State = HAL_TIM_STATE_BUSY;
 8002430:	3301      	adds	r3, #1
 8002432:	3201      	adds	r2, #1
 8002434:	54c2      	strb	r2, [r0, r3]
  tmpsmcr = htim->Instance->SMCR;
 8002436:	6802      	ldr	r2, [r0, #0]
 8002438:	6893      	ldr	r3, [r2, #8]
  tmpsmcr &= ~(TIM_SMCR_ETF | TIM_SMCR_ETPS | TIM_SMCR_ECE | TIM_SMCR_ETP);
 800243a:	4839      	ldr	r0, [pc, #228]	; (8002520 <HAL_TIM_ConfigClockSource+0x104>)
 800243c:	4003      	ands	r3, r0
  htim->Instance->SMCR = tmpsmcr;
 800243e:	6093      	str	r3, [r2, #8]
  switch (sClockSourceConfig->ClockSource)
 8002440:	680b      	ldr	r3, [r1, #0]
 8002442:	2b60      	cmp	r3, #96	; 0x60
 8002444:	d050      	beq.n	80024e8 <HAL_TIM_ConfigClockSource+0xcc>
 8002446:	d82a      	bhi.n	800249e <HAL_TIM_ConfigClockSource+0x82>
 8002448:	2b40      	cmp	r3, #64	; 0x40
 800244a:	d058      	beq.n	80024fe <HAL_TIM_ConfigClockSource+0xe2>
 800244c:	d90c      	bls.n	8002468 <HAL_TIM_ConfigClockSource+0x4c>
 800244e:	2b50      	cmp	r3, #80	; 0x50
 8002450:	d123      	bne.n	800249a <HAL_TIM_ConfigClockSource+0x7e>
      TIM_TI1_ConfigInputStage(htim->Instance,
 8002452:	68ca      	ldr	r2, [r1, #12]
 8002454:	6849      	ldr	r1, [r1, #4]
 8002456:	6820      	ldr	r0, [r4, #0]
 8002458:	f7ff fd90 	bl	8001f7c <TIM_TI1_ConfigInputStage>
      TIM_ITRx_SetConfig(htim->Instance, TIM_CLOCKSOURCE_TI1);
 800245c:	2150      	movs	r1, #80	; 0x50
 800245e:	6820      	ldr	r0, [r4, #0]
 8002460:	f7ff fdb2 	bl	8001fc8 <TIM_ITRx_SetConfig>
  HAL_StatusTypeDef status = HAL_OK;
 8002464:	2000      	movs	r0, #0
      break;
 8002466:	e005      	b.n	8002474 <HAL_TIM_ConfigClockSource+0x58>
  switch (sClockSourceConfig->ClockSource)
 8002468:	2b20      	cmp	r3, #32
 800246a:	d00e      	beq.n	800248a <HAL_TIM_ConfigClockSource+0x6e>
 800246c:	d909      	bls.n	8002482 <HAL_TIM_ConfigClockSource+0x66>
 800246e:	2b30      	cmp	r3, #48	; 0x30
 8002470:	d00b      	beq.n	800248a <HAL_TIM_ConfigClockSource+0x6e>
      status = HAL_ERROR;
 8002472:	2001      	movs	r0, #1
  htim->State = HAL_TIM_STATE_READY;
 8002474:	233d      	movs	r3, #61	; 0x3d
 8002476:	2201      	movs	r2, #1
 8002478:	54e2      	strb	r2, [r4, r3]
  __HAL_UNLOCK(htim);
 800247a:	3b01      	subs	r3, #1
 800247c:	2200      	movs	r2, #0
 800247e:	54e2      	strb	r2, [r4, r3]
}
 8002480:	bd10      	pop	{r4, pc}
  switch (sClockSourceConfig->ClockSource)
 8002482:	2b00      	cmp	r3, #0
 8002484:	d001      	beq.n	800248a <HAL_TIM_ConfigClockSource+0x6e>
 8002486:	2b10      	cmp	r3, #16
 8002488:	d105      	bne.n	8002496 <HAL_TIM_ConfigClockSource+0x7a>
      TIM_ITRx_SetConfig(htim->Instance, sClockSourceConfig->ClockSource);
 800248a:	0019      	movs	r1, r3
 800248c:	6820      	ldr	r0, [r4, #0]
 800248e:	f7ff fd9b 	bl	8001fc8 <TIM_ITRx_SetConfig>
  HAL_StatusTypeDef status = HAL_OK;
 8002492:	2000      	movs	r0, #0
      break;
 8002494:	e7ee      	b.n	8002474 <HAL_TIM_ConfigClockSource+0x58>
      status = HAL_ERROR;
 8002496:	2001      	movs	r0, #1
 8002498:	e7ec      	b.n	8002474 <HAL_TIM_ConfigClockSource+0x58>
 800249a:	2001      	movs	r0, #1
 800249c:	e7ea      	b.n	8002474 <HAL_TIM_ConfigClockSource+0x58>
  switch (sClockSourceConfig->ClockSource)
 800249e:	2280      	movs	r2, #128	; 0x80
 80024a0:	0152      	lsls	r2, r2, #5
 80024a2:	4293      	cmp	r3, r2
 80024a4:	d036      	beq.n	8002514 <HAL_TIM_ConfigClockSource+0xf8>
 80024a6:	2280      	movs	r2, #128	; 0x80
 80024a8:	0192      	lsls	r2, r2, #6
 80024aa:	4293      	cmp	r3, r2
 80024ac:	d10d      	bne.n	80024ca <HAL_TIM_ConfigClockSource+0xae>
      TIM_ETR_SetConfig(htim->Instance,
 80024ae:	68cb      	ldr	r3, [r1, #12]
 80024b0:	684a      	ldr	r2, [r1, #4]
 80024b2:	6889      	ldr	r1, [r1, #8]
 80024b4:	6820      	ldr	r0, [r4, #0]
 80024b6:	f7ff ffa5 	bl	8002404 <TIM_ETR_SetConfig>
      htim->Instance->SMCR |= TIM_SMCR_ECE;
 80024ba:	6822      	ldr	r2, [r4, #0]
 80024bc:	6891      	ldr	r1, [r2, #8]
 80024be:	2380      	movs	r3, #128	; 0x80
 80024c0:	01db      	lsls	r3, r3, #7
 80024c2:	430b      	orrs	r3, r1
 80024c4:	6093      	str	r3, [r2, #8]
  HAL_StatusTypeDef status = HAL_OK;
 80024c6:	2000      	movs	r0, #0
      break;
 80024c8:	e7d4      	b.n	8002474 <HAL_TIM_ConfigClockSource+0x58>
  switch (sClockSourceConfig->ClockSource)
 80024ca:	2b70      	cmp	r3, #112	; 0x70
 80024cc:	d124      	bne.n	8002518 <HAL_TIM_ConfigClockSource+0xfc>
      TIM_ETR_SetConfig(htim->Instance,
 80024ce:	68cb      	ldr	r3, [r1, #12]
 80024d0:	684a      	ldr	r2, [r1, #4]
 80024d2:	6889      	ldr	r1, [r1, #8]
 80024d4:	6820      	ldr	r0, [r4, #0]
 80024d6:	f7ff ff95 	bl	8002404 <TIM_ETR_SetConfig>
      tmpsmcr = htim->Instance->SMCR;
 80024da:	6822      	ldr	r2, [r4, #0]
 80024dc:	6893      	ldr	r3, [r2, #8]
      tmpsmcr |= (TIM_SLAVEMODE_EXTERNAL1 | TIM_CLOCKSOURCE_ETRMODE1);
 80024de:	2177      	movs	r1, #119	; 0x77
 80024e0:	430b      	orrs	r3, r1
      htim->Instance->SMCR = tmpsmcr;
 80024e2:	6093      	str	r3, [r2, #8]
  HAL_StatusTypeDef status = HAL_OK;
 80024e4:	2000      	movs	r0, #0
      break;
 80024e6:	e7c5      	b.n	8002474 <HAL_TIM_ConfigClockSource+0x58>
      TIM_TI2_ConfigInputStage(htim->Instance,
 80024e8:	68ca      	ldr	r2, [r1, #12]
 80024ea:	6849      	ldr	r1, [r1, #4]
 80024ec:	6820      	ldr	r0, [r4, #0]
 80024ee:	f7ff fd57 	bl	8001fa0 <TIM_TI2_ConfigInputStage>
      TIM_ITRx_SetConfig(htim->Instance, TIM_CLOCKSOURCE_TI2);
 80024f2:	2160      	movs	r1, #96	; 0x60
 80024f4:	6820      	ldr	r0, [r4, #0]
 80024f6:	f7ff fd67 	bl	8001fc8 <TIM_ITRx_SetConfig>
  HAL_StatusTypeDef status = HAL_OK;
 80024fa:	2000      	movs	r0, #0
      break;
 80024fc:	e7ba      	b.n	8002474 <HAL_TIM_ConfigClockSource+0x58>
      TIM_TI1_ConfigInputStage(htim->Instance,
 80024fe:	68ca      	ldr	r2, [r1, #12]
 8002500:	6849      	ldr	r1, [r1, #4]
 8002502:	6820      	ldr	r0, [r4, #0]
 8002504:	f7ff fd3a 	bl	8001f7c <TIM_TI1_ConfigInputStage>
      TIM_ITRx_SetConfig(htim->Instance, TIM_CLOCKSOURCE_TI1ED);
 8002508:	2140      	movs	r1, #64	; 0x40
 800250a:	6820      	ldr	r0, [r4, #0]
 800250c:	f7ff fd5c 	bl	8001fc8 <TIM_ITRx_SetConfig>
  HAL_StatusTypeDef status = HAL_OK;
 8002510:	2000      	movs	r0, #0
      break;
 8002512:	e7af      	b.n	8002474 <HAL_TIM_ConfigClockSource+0x58>
  switch (sClockSourceConfig->ClockSource)
 8002514:	2000      	movs	r0, #0
 8002516:	e7ad      	b.n	8002474 <HAL_TIM_ConfigClockSource+0x58>
      status = HAL_ERROR;
 8002518:	2001      	movs	r0, #1
 800251a:	e7ab      	b.n	8002474 <HAL_TIM_ConfigClockSource+0x58>
  __HAL_LOCK(htim);
 800251c:	2002      	movs	r0, #2
 800251e:	e7af      	b.n	8002480 <HAL_TIM_ConfigClockSource+0x64>
 8002520:	ffce0088 	.word	0xffce0088

08002524 <TIM_CCxChannelCmd>:
  * @param  ChannelState specifies the TIM Channel CCxE bit new state.
  *          This parameter can be: TIM_CCx_ENABLE or TIM_CCx_DISABLE.
  * @retval None
  */
void TIM_CCxChannelCmd(TIM_TypeDef *TIMx, uint32_t Channel, uint32_t ChannelState)
{
 8002524:	b510      	push	{r4, lr}

  /* Check the parameters */
  assert_param(IS_TIM_CC1_INSTANCE(TIMx));
  assert_param(IS_TIM_CHANNELS(Channel));

  tmp = TIM_CCER_CC1E << (Channel & 0x1FU); /* 0x1FU = 31 bits max shift */
 8002526:	231f      	movs	r3, #31
 8002528:	4019      	ands	r1, r3
 800252a:	2401      	movs	r4, #1
 800252c:	408c      	lsls	r4, r1

  /* Reset the CCxE Bit */
  TIMx->CCER &= ~tmp;
 800252e:	6a03      	ldr	r3, [r0, #32]
 8002530:	43a3      	bics	r3, r4
 8002532:	6203      	str	r3, [r0, #32]

  /* Set or reset the CCxE Bit */
  TIMx->CCER |= (uint32_t)(ChannelState << (Channel & 0x1FU)); /* 0x1FU = 31 bits max shift */
 8002534:	6a03      	ldr	r3, [r0, #32]
 8002536:	408a      	lsls	r2, r1
 8002538:	4313      	orrs	r3, r2
 800253a:	6203      	str	r3, [r0, #32]
}
 800253c:	bd10      	pop	{r4, pc}
	...

08002540 <HAL_TIM_PWM_Start_DMA>:
{
 8002540:	b570      	push	{r4, r5, r6, lr}
 8002542:	0006      	movs	r6, r0
 8002544:	000c      	movs	r4, r1
 8002546:	0011      	movs	r1, r2
  if (TIM_CHANNEL_STATE_GET(htim, Channel) == HAL_TIM_CHANNEL_STATE_BUSY)
 8002548:	2c00      	cmp	r4, #0
 800254a:	d141      	bne.n	80025d0 <HAL_TIM_PWM_Start_DMA+0x90>
 800254c:	223e      	movs	r2, #62	; 0x3e
 800254e:	5c85      	ldrb	r5, [r0, r2]
 8002550:	3d02      	subs	r5, #2
 8002552:	426a      	negs	r2, r5
 8002554:	4155      	adcs	r5, r2
 8002556:	b2ed      	uxtb	r5, r5
 8002558:	2d00      	cmp	r5, #0
 800255a:	d000      	beq.n	800255e <HAL_TIM_PWM_Start_DMA+0x1e>
 800255c:	e128      	b.n	80027b0 <HAL_TIM_PWM_Start_DMA+0x270>
  else if (TIM_CHANNEL_STATE_GET(htim, Channel) == HAL_TIM_CHANNEL_STATE_READY)
 800255e:	2c00      	cmp	r4, #0
 8002560:	d161      	bne.n	8002626 <HAL_TIM_PWM_Start_DMA+0xe6>
 8002562:	223e      	movs	r2, #62	; 0x3e
 8002564:	5cb2      	ldrb	r2, [r6, r2]
 8002566:	3a01      	subs	r2, #1
 8002568:	4250      	negs	r0, r2
 800256a:	4142      	adcs	r2, r0
 800256c:	b2d2      	uxtb	r2, r2
 800256e:	2a00      	cmp	r2, #0
 8002570:	d100      	bne.n	8002574 <HAL_TIM_PWM_Start_DMA+0x34>
 8002572:	e11f      	b.n	80027b4 <HAL_TIM_PWM_Start_DMA+0x274>
    if ((pData == NULL) || (Length == 0U))
 8002574:	2900      	cmp	r1, #0
 8002576:	d100      	bne.n	800257a <HAL_TIM_PWM_Start_DMA+0x3a>
 8002578:	e11e      	b.n	80027b8 <HAL_TIM_PWM_Start_DMA+0x278>
 800257a:	2b00      	cmp	r3, #0
 800257c:	d100      	bne.n	8002580 <HAL_TIM_PWM_Start_DMA+0x40>
 800257e:	e11d      	b.n	80027bc <HAL_TIM_PWM_Start_DMA+0x27c>
      TIM_CHANNEL_STATE_SET(htim, Channel, HAL_TIM_CHANNEL_STATE_BUSY);
 8002580:	2c00      	cmp	r4, #0
 8002582:	d17b      	bne.n	800267c <HAL_TIM_PWM_Start_DMA+0x13c>
 8002584:	223e      	movs	r2, #62	; 0x3e
 8002586:	2002      	movs	r0, #2
 8002588:	54b0      	strb	r0, [r6, r2]
  switch (Channel)
 800258a:	2c08      	cmp	r4, #8
 800258c:	d100      	bne.n	8002590 <HAL_TIM_PWM_Start_DMA+0x50>
 800258e:	e0ea      	b.n	8002766 <HAL_TIM_PWM_Start_DMA+0x226>
 8002590:	d900      	bls.n	8002594 <HAL_TIM_PWM_Start_DMA+0x54>
 8002592:	e091      	b.n	80026b8 <HAL_TIM_PWM_Start_DMA+0x178>
 8002594:	2c00      	cmp	r4, #0
 8002596:	d100      	bne.n	800259a <HAL_TIM_PWM_Start_DMA+0x5a>
 8002598:	e0aa      	b.n	80026f0 <HAL_TIM_PWM_Start_DMA+0x1b0>
 800259a:	2c04      	cmp	r4, #4
 800259c:	d000      	beq.n	80025a0 <HAL_TIM_PWM_Start_DMA+0x60>
 800259e:	e089      	b.n	80026b4 <HAL_TIM_PWM_Start_DMA+0x174>
      htim->hdma[TIM_DMA_ID_CC2]->XferCpltCallback = TIM_DMADelayPulseCplt;
 80025a0:	6ab2      	ldr	r2, [r6, #40]	; 0x28
 80025a2:	488d      	ldr	r0, [pc, #564]	; (80027d8 <HAL_TIM_PWM_Start_DMA+0x298>)
 80025a4:	62d0      	str	r0, [r2, #44]	; 0x2c
      htim->hdma[TIM_DMA_ID_CC2]->XferHalfCpltCallback = TIM_DMADelayPulseHalfCplt;
 80025a6:	6ab2      	ldr	r2, [r6, #40]	; 0x28
 80025a8:	488c      	ldr	r0, [pc, #560]	; (80027dc <HAL_TIM_PWM_Start_DMA+0x29c>)
 80025aa:	6310      	str	r0, [r2, #48]	; 0x30
      htim->hdma[TIM_DMA_ID_CC2]->XferErrorCallback = TIM_DMAError ;
 80025ac:	6ab2      	ldr	r2, [r6, #40]	; 0x28
 80025ae:	488c      	ldr	r0, [pc, #560]	; (80027e0 <HAL_TIM_PWM_Start_DMA+0x2a0>)
 80025b0:	6350      	str	r0, [r2, #52]	; 0x34
      if (HAL_DMA_Start_IT(htim->hdma[TIM_DMA_ID_CC2], (uint32_t)pData, (uint32_t)&htim->Instance->CCR2,
 80025b2:	6832      	ldr	r2, [r6, #0]
 80025b4:	3238      	adds	r2, #56	; 0x38
 80025b6:	6ab0      	ldr	r0, [r6, #40]	; 0x28
 80025b8:	f7fe fc38 	bl	8000e2c <HAL_DMA_Start_IT>
 80025bc:	2800      	cmp	r0, #0
 80025be:	d000      	beq.n	80025c2 <HAL_TIM_PWM_Start_DMA+0x82>
 80025c0:	e100      	b.n	80027c4 <HAL_TIM_PWM_Start_DMA+0x284>
      __HAL_TIM_ENABLE_DMA(htim, TIM_DMA_CC2);
 80025c2:	6832      	ldr	r2, [r6, #0]
 80025c4:	68d1      	ldr	r1, [r2, #12]
 80025c6:	2380      	movs	r3, #128	; 0x80
 80025c8:	00db      	lsls	r3, r3, #3
 80025ca:	430b      	orrs	r3, r1
 80025cc:	60d3      	str	r3, [r2, #12]
  if (status == HAL_OK)
 80025ce:	e0a5      	b.n	800271c <HAL_TIM_PWM_Start_DMA+0x1dc>
  if (TIM_CHANNEL_STATE_GET(htim, Channel) == HAL_TIM_CHANNEL_STATE_BUSY)
 80025d0:	2c04      	cmp	r4, #4
 80025d2:	d00c      	beq.n	80025ee <HAL_TIM_PWM_Start_DMA+0xae>
 80025d4:	2c08      	cmp	r4, #8
 80025d6:	d011      	beq.n	80025fc <HAL_TIM_PWM_Start_DMA+0xbc>
 80025d8:	2c0c      	cmp	r4, #12
 80025da:	d016      	beq.n	800260a <HAL_TIM_PWM_Start_DMA+0xca>
 80025dc:	2c10      	cmp	r4, #16
 80025de:	d01b      	beq.n	8002618 <HAL_TIM_PWM_Start_DMA+0xd8>
 80025e0:	2243      	movs	r2, #67	; 0x43
 80025e2:	5c85      	ldrb	r5, [r0, r2]
 80025e4:	3d02      	subs	r5, #2
 80025e6:	426a      	negs	r2, r5
 80025e8:	4155      	adcs	r5, r2
 80025ea:	b2ed      	uxtb	r5, r5
 80025ec:	e7b4      	b.n	8002558 <HAL_TIM_PWM_Start_DMA+0x18>
 80025ee:	223f      	movs	r2, #63	; 0x3f
 80025f0:	5c85      	ldrb	r5, [r0, r2]
 80025f2:	3d02      	subs	r5, #2
 80025f4:	426a      	negs	r2, r5
 80025f6:	4155      	adcs	r5, r2
 80025f8:	b2ed      	uxtb	r5, r5
 80025fa:	e7ad      	b.n	8002558 <HAL_TIM_PWM_Start_DMA+0x18>
 80025fc:	2240      	movs	r2, #64	; 0x40
 80025fe:	5c85      	ldrb	r5, [r0, r2]
 8002600:	3d02      	subs	r5, #2
 8002602:	426a      	negs	r2, r5
 8002604:	4155      	adcs	r5, r2
 8002606:	b2ed      	uxtb	r5, r5
 8002608:	e7a6      	b.n	8002558 <HAL_TIM_PWM_Start_DMA+0x18>
 800260a:	2241      	movs	r2, #65	; 0x41
 800260c:	5c85      	ldrb	r5, [r0, r2]
 800260e:	3d02      	subs	r5, #2
 8002610:	426a      	negs	r2, r5
 8002612:	4155      	adcs	r5, r2
 8002614:	b2ed      	uxtb	r5, r5
 8002616:	e79f      	b.n	8002558 <HAL_TIM_PWM_Start_DMA+0x18>
 8002618:	2242      	movs	r2, #66	; 0x42
 800261a:	5c85      	ldrb	r5, [r0, r2]
 800261c:	3d02      	subs	r5, #2
 800261e:	426a      	negs	r2, r5
 8002620:	4155      	adcs	r5, r2
 8002622:	b2ed      	uxtb	r5, r5
 8002624:	e798      	b.n	8002558 <HAL_TIM_PWM_Start_DMA+0x18>
  else if (TIM_CHANNEL_STATE_GET(htim, Channel) == HAL_TIM_CHANNEL_STATE_READY)
 8002626:	2c04      	cmp	r4, #4
 8002628:	d00c      	beq.n	8002644 <HAL_TIM_PWM_Start_DMA+0x104>
 800262a:	2c08      	cmp	r4, #8
 800262c:	d011      	beq.n	8002652 <HAL_TIM_PWM_Start_DMA+0x112>
 800262e:	2c0c      	cmp	r4, #12
 8002630:	d016      	beq.n	8002660 <HAL_TIM_PWM_Start_DMA+0x120>
 8002632:	2c10      	cmp	r4, #16
 8002634:	d01b      	beq.n	800266e <HAL_TIM_PWM_Start_DMA+0x12e>
 8002636:	2243      	movs	r2, #67	; 0x43
 8002638:	5cb2      	ldrb	r2, [r6, r2]
 800263a:	3a01      	subs	r2, #1
 800263c:	4250      	negs	r0, r2
 800263e:	4142      	adcs	r2, r0
 8002640:	b2d2      	uxtb	r2, r2
 8002642:	e794      	b.n	800256e <HAL_TIM_PWM_Start_DMA+0x2e>
 8002644:	223f      	movs	r2, #63	; 0x3f
 8002646:	5cb2      	ldrb	r2, [r6, r2]
 8002648:	3a01      	subs	r2, #1
 800264a:	4250      	negs	r0, r2
 800264c:	4142      	adcs	r2, r0
 800264e:	b2d2      	uxtb	r2, r2
 8002650:	e78d      	b.n	800256e <HAL_TIM_PWM_Start_DMA+0x2e>
 8002652:	2240      	movs	r2, #64	; 0x40
 8002654:	5cb2      	ldrb	r2, [r6, r2]
 8002656:	3a01      	subs	r2, #1
 8002658:	4250      	negs	r0, r2
 800265a:	4142      	adcs	r2, r0
 800265c:	b2d2      	uxtb	r2, r2
 800265e:	e786      	b.n	800256e <HAL_TIM_PWM_Start_DMA+0x2e>
 8002660:	2241      	movs	r2, #65	; 0x41
 8002662:	5cb2      	ldrb	r2, [r6, r2]
 8002664:	3a01      	subs	r2, #1
 8002666:	4250      	negs	r0, r2
 8002668:	4142      	adcs	r2, r0
 800266a:	b2d2      	uxtb	r2, r2
 800266c:	e77f      	b.n	800256e <HAL_TIM_PWM_Start_DMA+0x2e>
 800266e:	2242      	movs	r2, #66	; 0x42
 8002670:	5cb2      	ldrb	r2, [r6, r2]
 8002672:	3a01      	subs	r2, #1
 8002674:	4250      	negs	r0, r2
 8002676:	4142      	adcs	r2, r0
 8002678:	b2d2      	uxtb	r2, r2
 800267a:	e778      	b.n	800256e <HAL_TIM_PWM_Start_DMA+0x2e>
      TIM_CHANNEL_STATE_SET(htim, Channel, HAL_TIM_CHANNEL_STATE_BUSY);
 800267c:	2c04      	cmp	r4, #4
 800267e:	d009      	beq.n	8002694 <HAL_TIM_PWM_Start_DMA+0x154>
 8002680:	2c08      	cmp	r4, #8
 8002682:	d00b      	beq.n	800269c <HAL_TIM_PWM_Start_DMA+0x15c>
 8002684:	2c0c      	cmp	r4, #12
 8002686:	d00d      	beq.n	80026a4 <HAL_TIM_PWM_Start_DMA+0x164>
 8002688:	2c10      	cmp	r4, #16
 800268a:	d00f      	beq.n	80026ac <HAL_TIM_PWM_Start_DMA+0x16c>
 800268c:	2243      	movs	r2, #67	; 0x43
 800268e:	2002      	movs	r0, #2
 8002690:	54b0      	strb	r0, [r6, r2]
 8002692:	e77a      	b.n	800258a <HAL_TIM_PWM_Start_DMA+0x4a>
 8002694:	223f      	movs	r2, #63	; 0x3f
 8002696:	2002      	movs	r0, #2
 8002698:	54b0      	strb	r0, [r6, r2]
 800269a:	e776      	b.n	800258a <HAL_TIM_PWM_Start_DMA+0x4a>
 800269c:	2240      	movs	r2, #64	; 0x40
 800269e:	2002      	movs	r0, #2
 80026a0:	54b0      	strb	r0, [r6, r2]
 80026a2:	e772      	b.n	800258a <HAL_TIM_PWM_Start_DMA+0x4a>
 80026a4:	2241      	movs	r2, #65	; 0x41
 80026a6:	2002      	movs	r0, #2
 80026a8:	54b0      	strb	r0, [r6, r2]
 80026aa:	e76e      	b.n	800258a <HAL_TIM_PWM_Start_DMA+0x4a>
 80026ac:	2242      	movs	r2, #66	; 0x42
 80026ae:	2002      	movs	r0, #2
 80026b0:	54b0      	strb	r0, [r6, r2]
 80026b2:	e76a      	b.n	800258a <HAL_TIM_PWM_Start_DMA+0x4a>
  switch (Channel)
 80026b4:	2001      	movs	r0, #1
 80026b6:	e07e      	b.n	80027b6 <HAL_TIM_PWM_Start_DMA+0x276>
 80026b8:	2c0c      	cmp	r4, #12
 80026ba:	d117      	bne.n	80026ec <HAL_TIM_PWM_Start_DMA+0x1ac>
      htim->hdma[TIM_DMA_ID_CC4]->XferCpltCallback = TIM_DMADelayPulseCplt;
 80026bc:	6b32      	ldr	r2, [r6, #48]	; 0x30
 80026be:	4846      	ldr	r0, [pc, #280]	; (80027d8 <HAL_TIM_PWM_Start_DMA+0x298>)
 80026c0:	62d0      	str	r0, [r2, #44]	; 0x2c
      htim->hdma[TIM_DMA_ID_CC4]->XferHalfCpltCallback = TIM_DMADelayPulseHalfCplt;
 80026c2:	6b32      	ldr	r2, [r6, #48]	; 0x30
 80026c4:	4845      	ldr	r0, [pc, #276]	; (80027dc <HAL_TIM_PWM_Start_DMA+0x29c>)
 80026c6:	6310      	str	r0, [r2, #48]	; 0x30
      htim->hdma[TIM_DMA_ID_CC4]->XferErrorCallback = TIM_DMAError ;
 80026c8:	6b32      	ldr	r2, [r6, #48]	; 0x30
 80026ca:	4845      	ldr	r0, [pc, #276]	; (80027e0 <HAL_TIM_PWM_Start_DMA+0x2a0>)
 80026cc:	6350      	str	r0, [r2, #52]	; 0x34
      if (HAL_DMA_Start_IT(htim->hdma[TIM_DMA_ID_CC4], (uint32_t)pData, (uint32_t)&htim->Instance->CCR4,
 80026ce:	6832      	ldr	r2, [r6, #0]
 80026d0:	3240      	adds	r2, #64	; 0x40
 80026d2:	6b30      	ldr	r0, [r6, #48]	; 0x30
 80026d4:	f7fe fbaa 	bl	8000e2c <HAL_DMA_Start_IT>
 80026d8:	2800      	cmp	r0, #0
 80026da:	d000      	beq.n	80026de <HAL_TIM_PWM_Start_DMA+0x19e>
 80026dc:	e076      	b.n	80027cc <HAL_TIM_PWM_Start_DMA+0x28c>
      __HAL_TIM_ENABLE_DMA(htim, TIM_DMA_CC4);
 80026de:	6832      	ldr	r2, [r6, #0]
 80026e0:	68d1      	ldr	r1, [r2, #12]
 80026e2:	2380      	movs	r3, #128	; 0x80
 80026e4:	015b      	lsls	r3, r3, #5
 80026e6:	430b      	orrs	r3, r1
 80026e8:	60d3      	str	r3, [r2, #12]
  if (status == HAL_OK)
 80026ea:	e017      	b.n	800271c <HAL_TIM_PWM_Start_DMA+0x1dc>
  switch (Channel)
 80026ec:	2001      	movs	r0, #1
 80026ee:	e062      	b.n	80027b6 <HAL_TIM_PWM_Start_DMA+0x276>
      htim->hdma[TIM_DMA_ID_CC1]->XferCpltCallback = TIM_DMADelayPulseCplt;
 80026f0:	6a72      	ldr	r2, [r6, #36]	; 0x24
 80026f2:	4839      	ldr	r0, [pc, #228]	; (80027d8 <HAL_TIM_PWM_Start_DMA+0x298>)
 80026f4:	62d0      	str	r0, [r2, #44]	; 0x2c
      htim->hdma[TIM_DMA_ID_CC1]->XferHalfCpltCallback = TIM_DMADelayPulseHalfCplt;
 80026f6:	6a72      	ldr	r2, [r6, #36]	; 0x24
 80026f8:	4838      	ldr	r0, [pc, #224]	; (80027dc <HAL_TIM_PWM_Start_DMA+0x29c>)
 80026fa:	6310      	str	r0, [r2, #48]	; 0x30
      htim->hdma[TIM_DMA_ID_CC1]->XferErrorCallback = TIM_DMAError ;
 80026fc:	6a72      	ldr	r2, [r6, #36]	; 0x24
 80026fe:	4838      	ldr	r0, [pc, #224]	; (80027e0 <HAL_TIM_PWM_Start_DMA+0x2a0>)
 8002700:	6350      	str	r0, [r2, #52]	; 0x34
      if (HAL_DMA_Start_IT(htim->hdma[TIM_DMA_ID_CC1], (uint32_t)pData, (uint32_t)&htim->Instance->CCR1,
 8002702:	6832      	ldr	r2, [r6, #0]
 8002704:	3234      	adds	r2, #52	; 0x34
 8002706:	6a70      	ldr	r0, [r6, #36]	; 0x24
 8002708:	f7fe fb90 	bl	8000e2c <HAL_DMA_Start_IT>
 800270c:	2800      	cmp	r0, #0
 800270e:	d157      	bne.n	80027c0 <HAL_TIM_PWM_Start_DMA+0x280>
      __HAL_TIM_ENABLE_DMA(htim, TIM_DMA_CC1);
 8002710:	6832      	ldr	r2, [r6, #0]
 8002712:	68d1      	ldr	r1, [r2, #12]
 8002714:	2380      	movs	r3, #128	; 0x80
 8002716:	009b      	lsls	r3, r3, #2
 8002718:	430b      	orrs	r3, r1
 800271a:	60d3      	str	r3, [r2, #12]
    TIM_CCxChannelCmd(htim->Instance, Channel, TIM_CCx_ENABLE);
 800271c:	2201      	movs	r2, #1
 800271e:	0021      	movs	r1, r4
 8002720:	6830      	ldr	r0, [r6, #0]
 8002722:	f7ff feff 	bl	8002524 <TIM_CCxChannelCmd>
    if (IS_TIM_BREAK_INSTANCE(htim->Instance) != RESET)
 8002726:	6833      	ldr	r3, [r6, #0]
 8002728:	4a2e      	ldr	r2, [pc, #184]	; (80027e4 <HAL_TIM_PWM_Start_DMA+0x2a4>)
 800272a:	4293      	cmp	r3, r2
 800272c:	d005      	beq.n	800273a <HAL_TIM_PWM_Start_DMA+0x1fa>
 800272e:	4a2e      	ldr	r2, [pc, #184]	; (80027e8 <HAL_TIM_PWM_Start_DMA+0x2a8>)
 8002730:	4293      	cmp	r3, r2
 8002732:	d002      	beq.n	800273a <HAL_TIM_PWM_Start_DMA+0x1fa>
 8002734:	4a2d      	ldr	r2, [pc, #180]	; (80027ec <HAL_TIM_PWM_Start_DMA+0x2ac>)
 8002736:	4293      	cmp	r3, r2
 8002738:	d104      	bne.n	8002744 <HAL_TIM_PWM_Start_DMA+0x204>
      __HAL_TIM_MOE_ENABLE(htim);
 800273a:	6c59      	ldr	r1, [r3, #68]	; 0x44
 800273c:	2280      	movs	r2, #128	; 0x80
 800273e:	0212      	lsls	r2, r2, #8
 8002740:	430a      	orrs	r2, r1
 8002742:	645a      	str	r2, [r3, #68]	; 0x44
    if (IS_TIM_SLAVE_INSTANCE(htim->Instance))
 8002744:	6833      	ldr	r3, [r6, #0]
 8002746:	4a27      	ldr	r2, [pc, #156]	; (80027e4 <HAL_TIM_PWM_Start_DMA+0x2a4>)
 8002748:	4293      	cmp	r3, r2
 800274a:	d023      	beq.n	8002794 <HAL_TIM_PWM_Start_DMA+0x254>
 800274c:	2280      	movs	r2, #128	; 0x80
 800274e:	05d2      	lsls	r2, r2, #23
 8002750:	4293      	cmp	r3, r2
 8002752:	d01f      	beq.n	8002794 <HAL_TIM_PWM_Start_DMA+0x254>
 8002754:	4a26      	ldr	r2, [pc, #152]	; (80027f0 <HAL_TIM_PWM_Start_DMA+0x2b0>)
 8002756:	4293      	cmp	r3, r2
 8002758:	d01c      	beq.n	8002794 <HAL_TIM_PWM_Start_DMA+0x254>
      __HAL_TIM_ENABLE(htim);
 800275a:	681a      	ldr	r2, [r3, #0]
 800275c:	2101      	movs	r1, #1
 800275e:	430a      	orrs	r2, r1
 8002760:	601a      	str	r2, [r3, #0]
 8002762:	2000      	movs	r0, #0
 8002764:	e027      	b.n	80027b6 <HAL_TIM_PWM_Start_DMA+0x276>
      htim->hdma[TIM_DMA_ID_CC3]->XferCpltCallback = TIM_DMADelayPulseCplt;
 8002766:	6af2      	ldr	r2, [r6, #44]	; 0x2c
 8002768:	481b      	ldr	r0, [pc, #108]	; (80027d8 <HAL_TIM_PWM_Start_DMA+0x298>)
 800276a:	62d0      	str	r0, [r2, #44]	; 0x2c
      htim->hdma[TIM_DMA_ID_CC3]->XferHalfCpltCallback = TIM_DMADelayPulseHalfCplt;
 800276c:	6af2      	ldr	r2, [r6, #44]	; 0x2c
 800276e:	481b      	ldr	r0, [pc, #108]	; (80027dc <HAL_TIM_PWM_Start_DMA+0x29c>)
 8002770:	6310      	str	r0, [r2, #48]	; 0x30
      htim->hdma[TIM_DMA_ID_CC3]->XferErrorCallback = TIM_DMAError ;
 8002772:	6af2      	ldr	r2, [r6, #44]	; 0x2c
 8002774:	481a      	ldr	r0, [pc, #104]	; (80027e0 <HAL_TIM_PWM_Start_DMA+0x2a0>)
 8002776:	6350      	str	r0, [r2, #52]	; 0x34
      if (HAL_DMA_Start_IT(htim->hdma[TIM_DMA_ID_CC3], (uint32_t)pData, (uint32_t)&htim->Instance->CCR3,
 8002778:	6832      	ldr	r2, [r6, #0]
 800277a:	323c      	adds	r2, #60	; 0x3c
 800277c:	6af0      	ldr	r0, [r6, #44]	; 0x2c
 800277e:	f7fe fb55 	bl	8000e2c <HAL_DMA_Start_IT>
 8002782:	2800      	cmp	r0, #0
 8002784:	d120      	bne.n	80027c8 <HAL_TIM_PWM_Start_DMA+0x288>
      __HAL_TIM_ENABLE_DMA(htim, TIM_DMA_CC3);
 8002786:	6832      	ldr	r2, [r6, #0]
 8002788:	68d1      	ldr	r1, [r2, #12]
 800278a:	2380      	movs	r3, #128	; 0x80
 800278c:	011b      	lsls	r3, r3, #4
 800278e:	430b      	orrs	r3, r1
 8002790:	60d3      	str	r3, [r2, #12]
  if (status == HAL_OK)
 8002792:	e7c3      	b.n	800271c <HAL_TIM_PWM_Start_DMA+0x1dc>
      tmpsmcr = htim->Instance->SMCR & TIM_SMCR_SMS;
 8002794:	689a      	ldr	r2, [r3, #8]
 8002796:	4917      	ldr	r1, [pc, #92]	; (80027f4 <HAL_TIM_PWM_Start_DMA+0x2b4>)
 8002798:	400a      	ands	r2, r1
      if (!IS_TIM_SLAVEMODE_TRIGGER_ENABLED(tmpsmcr))
 800279a:	2a06      	cmp	r2, #6
 800279c:	d018      	beq.n	80027d0 <HAL_TIM_PWM_Start_DMA+0x290>
 800279e:	3907      	subs	r1, #7
 80027a0:	428a      	cmp	r2, r1
 80027a2:	d017      	beq.n	80027d4 <HAL_TIM_PWM_Start_DMA+0x294>
        __HAL_TIM_ENABLE(htim);
 80027a4:	681a      	ldr	r2, [r3, #0]
 80027a6:	2101      	movs	r1, #1
 80027a8:	430a      	orrs	r2, r1
 80027aa:	601a      	str	r2, [r3, #0]
 80027ac:	2000      	movs	r0, #0
 80027ae:	e002      	b.n	80027b6 <HAL_TIM_PWM_Start_DMA+0x276>
    return HAL_BUSY;
 80027b0:	2002      	movs	r0, #2
 80027b2:	e000      	b.n	80027b6 <HAL_TIM_PWM_Start_DMA+0x276>
    return HAL_ERROR;
 80027b4:	2001      	movs	r0, #1
}
 80027b6:	bd70      	pop	{r4, r5, r6, pc}
      return HAL_ERROR;
 80027b8:	2001      	movs	r0, #1
 80027ba:	e7fc      	b.n	80027b6 <HAL_TIM_PWM_Start_DMA+0x276>
 80027bc:	2001      	movs	r0, #1
 80027be:	e7fa      	b.n	80027b6 <HAL_TIM_PWM_Start_DMA+0x276>
        return HAL_ERROR;
 80027c0:	2001      	movs	r0, #1
 80027c2:	e7f8      	b.n	80027b6 <HAL_TIM_PWM_Start_DMA+0x276>
        return HAL_ERROR;
 80027c4:	2001      	movs	r0, #1
 80027c6:	e7f6      	b.n	80027b6 <HAL_TIM_PWM_Start_DMA+0x276>
        return HAL_ERROR;
 80027c8:	2001      	movs	r0, #1
 80027ca:	e7f4      	b.n	80027b6 <HAL_TIM_PWM_Start_DMA+0x276>
        return HAL_ERROR;
 80027cc:	2001      	movs	r0, #1
 80027ce:	e7f2      	b.n	80027b6 <HAL_TIM_PWM_Start_DMA+0x276>
 80027d0:	2000      	movs	r0, #0
 80027d2:	e7f0      	b.n	80027b6 <HAL_TIM_PWM_Start_DMA+0x276>
 80027d4:	2000      	movs	r0, #0
 80027d6:	e7ee      	b.n	80027b6 <HAL_TIM_PWM_Start_DMA+0x276>
 80027d8:	08001fdf 	.word	0x08001fdf
 80027dc:	0800204f 	.word	0x0800204f
 80027e0:	0800208f 	.word	0x0800208f
 80027e4:	40012c00 	.word	0x40012c00
 80027e8:	40014400 	.word	0x40014400
 80027ec:	40014800 	.word	0x40014800
 80027f0:	40000400 	.word	0x40000400
 80027f4:	00010007 	.word	0x00010007

080027f8 <HAL_TIM_PWM_Stop_DMA>:
{
 80027f8:	b570      	push	{r4, r5, r6, lr}
 80027fa:	0005      	movs	r5, r0
 80027fc:	000c      	movs	r4, r1
  switch (Channel)
 80027fe:	2908      	cmp	r1, #8
 8002800:	d047      	beq.n	8002892 <HAL_TIM_PWM_Stop_DMA+0x9a>
 8002802:	d80e      	bhi.n	8002822 <HAL_TIM_PWM_Stop_DMA+0x2a>
 8002804:	2900      	cmp	r1, #0
 8002806:	d019      	beq.n	800283c <HAL_TIM_PWM_Stop_DMA+0x44>
 8002808:	2904      	cmp	r1, #4
 800280a:	d108      	bne.n	800281e <HAL_TIM_PWM_Stop_DMA+0x26>
      __HAL_TIM_DISABLE_DMA(htim, TIM_DMA_CC2);
 800280c:	6802      	ldr	r2, [r0, #0]
 800280e:	68d3      	ldr	r3, [r2, #12]
 8002810:	493b      	ldr	r1, [pc, #236]	; (8002900 <HAL_TIM_PWM_Stop_DMA+0x108>)
 8002812:	400b      	ands	r3, r1
 8002814:	60d3      	str	r3, [r2, #12]
      (void)HAL_DMA_Abort_IT(htim->hdma[TIM_DMA_ID_CC2]);
 8002816:	6a80      	ldr	r0, [r0, #40]	; 0x28
 8002818:	f7fe fb56 	bl	8000ec8 <HAL_DMA_Abort_IT>
  if (status == HAL_OK)
 800281c:	e016      	b.n	800284c <HAL_TIM_PWM_Stop_DMA+0x54>
  switch (Channel)
 800281e:	2001      	movs	r0, #1
 8002820:	e036      	b.n	8002890 <HAL_TIM_PWM_Stop_DMA+0x98>
 8002822:	290c      	cmp	r1, #12
 8002824:	d108      	bne.n	8002838 <HAL_TIM_PWM_Stop_DMA+0x40>
      __HAL_TIM_DISABLE_DMA(htim, TIM_DMA_CC4);
 8002826:	6802      	ldr	r2, [r0, #0]
 8002828:	68d3      	ldr	r3, [r2, #12]
 800282a:	4936      	ldr	r1, [pc, #216]	; (8002904 <HAL_TIM_PWM_Stop_DMA+0x10c>)
 800282c:	400b      	ands	r3, r1
 800282e:	60d3      	str	r3, [r2, #12]
      (void)HAL_DMA_Abort_IT(htim->hdma[TIM_DMA_ID_CC4]);
 8002830:	6b00      	ldr	r0, [r0, #48]	; 0x30
 8002832:	f7fe fb49 	bl	8000ec8 <HAL_DMA_Abort_IT>
  if (status == HAL_OK)
 8002836:	e009      	b.n	800284c <HAL_TIM_PWM_Stop_DMA+0x54>
  switch (Channel)
 8002838:	2001      	movs	r0, #1
 800283a:	e029      	b.n	8002890 <HAL_TIM_PWM_Stop_DMA+0x98>
      __HAL_TIM_DISABLE_DMA(htim, TIM_DMA_CC1);
 800283c:	6802      	ldr	r2, [r0, #0]
 800283e:	68d3      	ldr	r3, [r2, #12]
 8002840:	4931      	ldr	r1, [pc, #196]	; (8002908 <HAL_TIM_PWM_Stop_DMA+0x110>)
 8002842:	400b      	ands	r3, r1
 8002844:	60d3      	str	r3, [r2, #12]
      (void)HAL_DMA_Abort_IT(htim->hdma[TIM_DMA_ID_CC1]);
 8002846:	6a40      	ldr	r0, [r0, #36]	; 0x24
 8002848:	f7fe fb3e 	bl	8000ec8 <HAL_DMA_Abort_IT>
    TIM_CCxChannelCmd(htim->Instance, Channel, TIM_CCx_DISABLE);
 800284c:	2200      	movs	r2, #0
 800284e:	0021      	movs	r1, r4
 8002850:	6828      	ldr	r0, [r5, #0]
 8002852:	f7ff fe67 	bl	8002524 <TIM_CCxChannelCmd>
    if (IS_TIM_BREAK_INSTANCE(htim->Instance) != RESET)
 8002856:	682b      	ldr	r3, [r5, #0]
 8002858:	4a2c      	ldr	r2, [pc, #176]	; (800290c <HAL_TIM_PWM_Stop_DMA+0x114>)
 800285a:	4293      	cmp	r3, r2
 800285c:	d022      	beq.n	80028a4 <HAL_TIM_PWM_Stop_DMA+0xac>
 800285e:	4a2c      	ldr	r2, [pc, #176]	; (8002910 <HAL_TIM_PWM_Stop_DMA+0x118>)
 8002860:	4293      	cmp	r3, r2
 8002862:	d01f      	beq.n	80028a4 <HAL_TIM_PWM_Stop_DMA+0xac>
 8002864:	4a2b      	ldr	r2, [pc, #172]	; (8002914 <HAL_TIM_PWM_Stop_DMA+0x11c>)
 8002866:	4293      	cmp	r3, r2
 8002868:	d01c      	beq.n	80028a4 <HAL_TIM_PWM_Stop_DMA+0xac>
    __HAL_TIM_DISABLE(htim);
 800286a:	682b      	ldr	r3, [r5, #0]
 800286c:	6a19      	ldr	r1, [r3, #32]
 800286e:	4a2a      	ldr	r2, [pc, #168]	; (8002918 <HAL_TIM_PWM_Stop_DMA+0x120>)
 8002870:	4211      	tst	r1, r2
 8002872:	d107      	bne.n	8002884 <HAL_TIM_PWM_Stop_DMA+0x8c>
 8002874:	6a19      	ldr	r1, [r3, #32]
 8002876:	4a29      	ldr	r2, [pc, #164]	; (800291c <HAL_TIM_PWM_Stop_DMA+0x124>)
 8002878:	4211      	tst	r1, r2
 800287a:	d103      	bne.n	8002884 <HAL_TIM_PWM_Stop_DMA+0x8c>
 800287c:	681a      	ldr	r2, [r3, #0]
 800287e:	2101      	movs	r1, #1
 8002880:	438a      	bics	r2, r1
 8002882:	601a      	str	r2, [r3, #0]
    TIM_CHANNEL_STATE_SET(htim, Channel, HAL_TIM_CHANNEL_STATE_READY);
 8002884:	2c00      	cmp	r4, #0
 8002886:	d11a      	bne.n	80028be <HAL_TIM_PWM_Stop_DMA+0xc6>
 8002888:	233e      	movs	r3, #62	; 0x3e
 800288a:	2201      	movs	r2, #1
 800288c:	54ea      	strb	r2, [r5, r3]
 800288e:	2000      	movs	r0, #0
}
 8002890:	bd70      	pop	{r4, r5, r6, pc}
      __HAL_TIM_DISABLE_DMA(htim, TIM_DMA_CC3);
 8002892:	6802      	ldr	r2, [r0, #0]
 8002894:	68d3      	ldr	r3, [r2, #12]
 8002896:	4922      	ldr	r1, [pc, #136]	; (8002920 <HAL_TIM_PWM_Stop_DMA+0x128>)
 8002898:	400b      	ands	r3, r1
 800289a:	60d3      	str	r3, [r2, #12]
      (void)HAL_DMA_Abort_IT(htim->hdma[TIM_DMA_ID_CC3]);
 800289c:	6ac0      	ldr	r0, [r0, #44]	; 0x2c
 800289e:	f7fe fb13 	bl	8000ec8 <HAL_DMA_Abort_IT>
  if (status == HAL_OK)
 80028a2:	e7d3      	b.n	800284c <HAL_TIM_PWM_Stop_DMA+0x54>
      __HAL_TIM_MOE_DISABLE(htim);
 80028a4:	6a19      	ldr	r1, [r3, #32]
 80028a6:	4a1c      	ldr	r2, [pc, #112]	; (8002918 <HAL_TIM_PWM_Stop_DMA+0x120>)
 80028a8:	4211      	tst	r1, r2
 80028aa:	d1de      	bne.n	800286a <HAL_TIM_PWM_Stop_DMA+0x72>
 80028ac:	6a19      	ldr	r1, [r3, #32]
 80028ae:	4a1b      	ldr	r2, [pc, #108]	; (800291c <HAL_TIM_PWM_Stop_DMA+0x124>)
 80028b0:	4211      	tst	r1, r2
 80028b2:	d1da      	bne.n	800286a <HAL_TIM_PWM_Stop_DMA+0x72>
 80028b4:	6c5a      	ldr	r2, [r3, #68]	; 0x44
 80028b6:	491b      	ldr	r1, [pc, #108]	; (8002924 <HAL_TIM_PWM_Stop_DMA+0x12c>)
 80028b8:	400a      	ands	r2, r1
 80028ba:	645a      	str	r2, [r3, #68]	; 0x44
 80028bc:	e7d5      	b.n	800286a <HAL_TIM_PWM_Stop_DMA+0x72>
    TIM_CHANNEL_STATE_SET(htim, Channel, HAL_TIM_CHANNEL_STATE_READY);
 80028be:	2c04      	cmp	r4, #4
 80028c0:	d00a      	beq.n	80028d8 <HAL_TIM_PWM_Stop_DMA+0xe0>
 80028c2:	2c08      	cmp	r4, #8
 80028c4:	d00d      	beq.n	80028e2 <HAL_TIM_PWM_Stop_DMA+0xea>
 80028c6:	2c0c      	cmp	r4, #12
 80028c8:	d010      	beq.n	80028ec <HAL_TIM_PWM_Stop_DMA+0xf4>
 80028ca:	2c10      	cmp	r4, #16
 80028cc:	d013      	beq.n	80028f6 <HAL_TIM_PWM_Stop_DMA+0xfe>
 80028ce:	2343      	movs	r3, #67	; 0x43
 80028d0:	2201      	movs	r2, #1
 80028d2:	54ea      	strb	r2, [r5, r3]
 80028d4:	2000      	movs	r0, #0
 80028d6:	e7db      	b.n	8002890 <HAL_TIM_PWM_Stop_DMA+0x98>
 80028d8:	233f      	movs	r3, #63	; 0x3f
 80028da:	2201      	movs	r2, #1
 80028dc:	54ea      	strb	r2, [r5, r3]
 80028de:	2000      	movs	r0, #0
 80028e0:	e7d6      	b.n	8002890 <HAL_TIM_PWM_Stop_DMA+0x98>
 80028e2:	2340      	movs	r3, #64	; 0x40
 80028e4:	2201      	movs	r2, #1
 80028e6:	54ea      	strb	r2, [r5, r3]
 80028e8:	2000      	movs	r0, #0
 80028ea:	e7d1      	b.n	8002890 <HAL_TIM_PWM_Stop_DMA+0x98>
 80028ec:	2341      	movs	r3, #65	; 0x41
 80028ee:	2201      	movs	r2, #1
 80028f0:	54ea      	strb	r2, [r5, r3]
 80028f2:	2000      	movs	r0, #0
 80028f4:	e7cc      	b.n	8002890 <HAL_TIM_PWM_Stop_DMA+0x98>
 80028f6:	2342      	movs	r3, #66	; 0x42
 80028f8:	2201      	movs	r2, #1
 80028fa:	54ea      	strb	r2, [r5, r3]
 80028fc:	2000      	movs	r0, #0
 80028fe:	e7c7      	b.n	8002890 <HAL_TIM_PWM_Stop_DMA+0x98>
 8002900:	fffffbff 	.word	0xfffffbff
 8002904:	ffffefff 	.word	0xffffefff
 8002908:	fffffdff 	.word	0xfffffdff
 800290c:	40012c00 	.word	0x40012c00
 8002910:	40014400 	.word	0x40014400
 8002914:	40014800 	.word	0x40014800
 8002918:	00001111 	.word	0x00001111
 800291c:	00000444 	.word	0x00000444
 8002920:	fffff7ff 	.word	0xfffff7ff
 8002924:	ffff7fff 	.word	0xffff7fff

08002928 <HAL_TIMEx_MasterConfigSynchronization>:
  *         mode.
  * @retval HAL status
  */
HAL_StatusTypeDef HAL_TIMEx_MasterConfigSynchronization(TIM_HandleTypeDef *htim,
                                                        const TIM_MasterConfigTypeDef *sMasterConfig)
{
 8002928:	b530      	push	{r4, r5, lr}
  assert_param(IS_TIM_MASTER_INSTANCE(htim->Instance));
  assert_param(IS_TIM_TRGO_SOURCE(sMasterConfig->MasterOutputTrigger));
  assert_param(IS_TIM_MSM_STATE(sMasterConfig->MasterSlaveMode));

  /* Check input state */
  __HAL_LOCK(htim);
 800292a:	233c      	movs	r3, #60	; 0x3c
 800292c:	5cc3      	ldrb	r3, [r0, r3]
 800292e:	2b01      	cmp	r3, #1
 8002930:	d02d      	beq.n	800298e <HAL_TIMEx_MasterConfigSynchronization+0x66>
 8002932:	233c      	movs	r3, #60	; 0x3c
 8002934:	2201      	movs	r2, #1
 8002936:	54c2      	strb	r2, [r0, r3]

  /* Change the handler state */
  htim->State = HAL_TIM_STATE_BUSY;
 8002938:	3301      	adds	r3, #1
 800293a:	3201      	adds	r2, #1
 800293c:	54c2      	strb	r2, [r0, r3]

  /* Get the TIMx CR2 register value */
  tmpcr2 = htim->Instance->CR2;
 800293e:	6802      	ldr	r2, [r0, #0]
 8002940:	6853      	ldr	r3, [r2, #4]

  /* Get the TIMx SMCR register value */
  tmpsmcr = htim->Instance->SMCR;
 8002942:	6894      	ldr	r4, [r2, #8]

  /* If the timer supports ADC synchronization through TRGO2, set the master mode selection 2 */
  if (IS_TIM_TRGO2_INSTANCE(htim->Instance))
 8002944:	4d13      	ldr	r5, [pc, #76]	; (8002994 <HAL_TIMEx_MasterConfigSynchronization+0x6c>)
 8002946:	42aa      	cmp	r2, r5
 8002948:	d01c      	beq.n	8002984 <HAL_TIMEx_MasterConfigSynchronization+0x5c>
    /* Select the TRGO2 source*/
    tmpcr2 |= sMasterConfig->MasterOutputTrigger2;
  }

  /* Reset the MMS Bits */
  tmpcr2 &= ~TIM_CR2_MMS;
 800294a:	2570      	movs	r5, #112	; 0x70
 800294c:	43ab      	bics	r3, r5
  /* Select the TRGO source */
  tmpcr2 |=  sMasterConfig->MasterOutputTrigger;
 800294e:	680d      	ldr	r5, [r1, #0]
 8002950:	432b      	orrs	r3, r5

  /* Update TIMx CR2 */
  htim->Instance->CR2 = tmpcr2;
 8002952:	6053      	str	r3, [r2, #4]

  if (IS_TIM_SLAVE_INSTANCE(htim->Instance))
 8002954:	6803      	ldr	r3, [r0, #0]
 8002956:	4a0f      	ldr	r2, [pc, #60]	; (8002994 <HAL_TIMEx_MasterConfigSynchronization+0x6c>)
 8002958:	4293      	cmp	r3, r2
 800295a:	d006      	beq.n	800296a <HAL_TIMEx_MasterConfigSynchronization+0x42>
 800295c:	2280      	movs	r2, #128	; 0x80
 800295e:	05d2      	lsls	r2, r2, #23
 8002960:	4293      	cmp	r3, r2
 8002962:	d002      	beq.n	800296a <HAL_TIMEx_MasterConfigSynchronization+0x42>
 8002964:	4a0c      	ldr	r2, [pc, #48]	; (8002998 <HAL_TIMEx_MasterConfigSynchronization+0x70>)
 8002966:	4293      	cmp	r3, r2
 8002968:	d104      	bne.n	8002974 <HAL_TIMEx_MasterConfigSynchronization+0x4c>
  {
    /* Reset the MSM Bit */
    tmpsmcr &= ~TIM_SMCR_MSM;
 800296a:	2280      	movs	r2, #128	; 0x80
 800296c:	4394      	bics	r4, r2
    /* Set master mode */
    tmpsmcr |= sMasterConfig->MasterSlaveMode;
 800296e:	688a      	ldr	r2, [r1, #8]
 8002970:	4314      	orrs	r4, r2

    /* Update TIMx SMCR */
    htim->Instance->SMCR = tmpsmcr;
 8002972:	609c      	str	r4, [r3, #8]
  }

  /* Change the htim state */
  htim->State = HAL_TIM_STATE_READY;
 8002974:	233d      	movs	r3, #61	; 0x3d
 8002976:	2201      	movs	r2, #1
 8002978:	54c2      	strb	r2, [r0, r3]

  __HAL_UNLOCK(htim);
 800297a:	3b01      	subs	r3, #1
 800297c:	2200      	movs	r2, #0
 800297e:	54c2      	strb	r2, [r0, r3]

  return HAL_OK;
 8002980:	2000      	movs	r0, #0
}
 8002982:	bd30      	pop	{r4, r5, pc}
    tmpcr2 &= ~TIM_CR2_MMS2;
 8002984:	4d05      	ldr	r5, [pc, #20]	; (800299c <HAL_TIMEx_MasterConfigSynchronization+0x74>)
 8002986:	402b      	ands	r3, r5
    tmpcr2 |= sMasterConfig->MasterOutputTrigger2;
 8002988:	684d      	ldr	r5, [r1, #4]
 800298a:	432b      	orrs	r3, r5
 800298c:	e7dd      	b.n	800294a <HAL_TIMEx_MasterConfigSynchronization+0x22>
  __HAL_LOCK(htim);
 800298e:	2002      	movs	r0, #2
 8002990:	e7f7      	b.n	8002982 <HAL_TIMEx_MasterConfigSynchronization+0x5a>
 8002992:	46c0      	nop			; (mov r8, r8)
 8002994:	40012c00 	.word	0x40012c00
 8002998:	40000400 	.word	0x40000400
 800299c:	ff0fffff 	.word	0xff0fffff

080029a0 <HAL_TIMEx_ConfigBreakDeadTime>:
  *         interrupt can be enabled by calling the @ref __HAL_TIM_ENABLE_IT macro.
  * @retval HAL status
  */
HAL_StatusTypeDef HAL_TIMEx_ConfigBreakDeadTime(TIM_HandleTypeDef *htim,
                                                const TIM_BreakDeadTimeConfigTypeDef *sBreakDeadTimeConfig)
{
 80029a0:	b510      	push	{r4, lr}
  assert_param(IS_TIM_BREAK_POLARITY(sBreakDeadTimeConfig->BreakPolarity));
  assert_param(IS_TIM_BREAK_FILTER(sBreakDeadTimeConfig->BreakFilter));
  assert_param(IS_TIM_AUTOMATIC_OUTPUT_STATE(sBreakDeadTimeConfig->AutomaticOutput));

  /* Check input state */
  __HAL_LOCK(htim);
 80029a2:	233c      	movs	r3, #60	; 0x3c
 80029a4:	5cc3      	ldrb	r3, [r0, r3]
 80029a6:	2b01      	cmp	r3, #1
 80029a8:	d044      	beq.n	8002a34 <HAL_TIMEx_ConfigBreakDeadTime+0x94>
 80029aa:	233c      	movs	r3, #60	; 0x3c
 80029ac:	2201      	movs	r2, #1
 80029ae:	54c2      	strb	r2, [r0, r3]
  /* Set the Lock level, the Break enable Bit and the Polarity, the OSSR State,
     the OSSI State, the dead time value and the Automatic Output Enable Bit */

  /* Set the BDTR bits */
  MODIFY_REG(tmpbdtr, TIM_BDTR_DTG, sBreakDeadTimeConfig->DeadTime);
  MODIFY_REG(tmpbdtr, TIM_BDTR_LOCK, sBreakDeadTimeConfig->LockLevel);
 80029b0:	4b21      	ldr	r3, [pc, #132]	; (8002a38 <HAL_TIMEx_ConfigBreakDeadTime+0x98>)
 80029b2:	68ca      	ldr	r2, [r1, #12]
 80029b4:	4013      	ands	r3, r2
 80029b6:	688a      	ldr	r2, [r1, #8]
 80029b8:	4313      	orrs	r3, r2
  MODIFY_REG(tmpbdtr, TIM_BDTR_OSSI, sBreakDeadTimeConfig->OffStateIDLEMode);
 80029ba:	4a20      	ldr	r2, [pc, #128]	; (8002a3c <HAL_TIMEx_ConfigBreakDeadTime+0x9c>)
 80029bc:	4013      	ands	r3, r2
 80029be:	684a      	ldr	r2, [r1, #4]
 80029c0:	4313      	orrs	r3, r2
  MODIFY_REG(tmpbdtr, TIM_BDTR_OSSR, sBreakDeadTimeConfig->OffStateRunMode);
 80029c2:	4a1f      	ldr	r2, [pc, #124]	; (8002a40 <HAL_TIMEx_ConfigBreakDeadTime+0xa0>)
 80029c4:	4013      	ands	r3, r2
 80029c6:	680a      	ldr	r2, [r1, #0]
 80029c8:	4313      	orrs	r3, r2
  MODIFY_REG(tmpbdtr, TIM_BDTR_BKE, sBreakDeadTimeConfig->BreakState);
 80029ca:	4a1e      	ldr	r2, [pc, #120]	; (8002a44 <HAL_TIMEx_ConfigBreakDeadTime+0xa4>)
 80029cc:	4013      	ands	r3, r2
 80029ce:	690a      	ldr	r2, [r1, #16]
 80029d0:	4313      	orrs	r3, r2
  MODIFY_REG(tmpbdtr, TIM_BDTR_BKP, sBreakDeadTimeConfig->BreakPolarity);
 80029d2:	4a1d      	ldr	r2, [pc, #116]	; (8002a48 <HAL_TIMEx_ConfigBreakDeadTime+0xa8>)
 80029d4:	4013      	ands	r3, r2
 80029d6:	694a      	ldr	r2, [r1, #20]
 80029d8:	4313      	orrs	r3, r2
  MODIFY_REG(tmpbdtr, TIM_BDTR_AOE, sBreakDeadTimeConfig->AutomaticOutput);
 80029da:	4a1c      	ldr	r2, [pc, #112]	; (8002a4c <HAL_TIMEx_ConfigBreakDeadTime+0xac>)
 80029dc:	4013      	ands	r3, r2
 80029de:	6b0a      	ldr	r2, [r1, #48]	; 0x30
 80029e0:	4313      	orrs	r3, r2
  MODIFY_REG(tmpbdtr, TIM_BDTR_BKF, (sBreakDeadTimeConfig->BreakFilter << TIM_BDTR_BKF_Pos));
 80029e2:	4a1b      	ldr	r2, [pc, #108]	; (8002a50 <HAL_TIMEx_ConfigBreakDeadTime+0xb0>)
 80029e4:	4013      	ands	r3, r2
 80029e6:	698a      	ldr	r2, [r1, #24]
 80029e8:	0412      	lsls	r2, r2, #16
 80029ea:	4313      	orrs	r3, r2

  if (IS_TIM_ADVANCED_INSTANCE(htim->Instance))
 80029ec:	6802      	ldr	r2, [r0, #0]
 80029ee:	4c19      	ldr	r4, [pc, #100]	; (8002a54 <HAL_TIMEx_ConfigBreakDeadTime+0xb4>)
 80029f0:	42a2      	cmp	r2, r4
 80029f2:	d008      	beq.n	8002a06 <HAL_TIMEx_ConfigBreakDeadTime+0x66>

    /* Set BREAK AF mode */
    MODIFY_REG(tmpbdtr, TIM_BDTR_BKBID, sBreakDeadTimeConfig->BreakAFMode);
  }

  if (IS_TIM_BKIN2_INSTANCE(htim->Instance))
 80029f4:	4c17      	ldr	r4, [pc, #92]	; (8002a54 <HAL_TIMEx_ConfigBreakDeadTime+0xb4>)
 80029f6:	42a2      	cmp	r2, r4
 80029f8:	d00a      	beq.n	8002a10 <HAL_TIMEx_ConfigBreakDeadTime+0x70>
      MODIFY_REG(tmpbdtr, TIM_BDTR_BK2BID, sBreakDeadTimeConfig->Break2AFMode);
    }
  }

  /* Set TIMx_BDTR */
  htim->Instance->BDTR = tmpbdtr;
 80029fa:	6453      	str	r3, [r2, #68]	; 0x44

  __HAL_UNLOCK(htim);
 80029fc:	233c      	movs	r3, #60	; 0x3c
 80029fe:	2200      	movs	r2, #0
 8002a00:	54c2      	strb	r2, [r0, r3]

  return HAL_OK;
 8002a02:	2000      	movs	r0, #0
}
 8002a04:	bd10      	pop	{r4, pc}
    MODIFY_REG(tmpbdtr, TIM_BDTR_BKBID, sBreakDeadTimeConfig->BreakAFMode);
 8002a06:	4c14      	ldr	r4, [pc, #80]	; (8002a58 <HAL_TIMEx_ConfigBreakDeadTime+0xb8>)
 8002a08:	4023      	ands	r3, r4
 8002a0a:	69cc      	ldr	r4, [r1, #28]
 8002a0c:	4323      	orrs	r3, r4
 8002a0e:	e7f1      	b.n	80029f4 <HAL_TIMEx_ConfigBreakDeadTime+0x54>
    MODIFY_REG(tmpbdtr, TIM_BDTR_BK2F, (sBreakDeadTimeConfig->Break2Filter << TIM_BDTR_BK2F_Pos));
 8002a10:	4c12      	ldr	r4, [pc, #72]	; (8002a5c <HAL_TIMEx_ConfigBreakDeadTime+0xbc>)
 8002a12:	4023      	ands	r3, r4
 8002a14:	6a8c      	ldr	r4, [r1, #40]	; 0x28
 8002a16:	0524      	lsls	r4, r4, #20
 8002a18:	4323      	orrs	r3, r4
    MODIFY_REG(tmpbdtr, TIM_BDTR_BK2E, sBreakDeadTimeConfig->Break2State);
 8002a1a:	4c11      	ldr	r4, [pc, #68]	; (8002a60 <HAL_TIMEx_ConfigBreakDeadTime+0xc0>)
 8002a1c:	4023      	ands	r3, r4
 8002a1e:	6a0c      	ldr	r4, [r1, #32]
 8002a20:	4323      	orrs	r3, r4
    MODIFY_REG(tmpbdtr, TIM_BDTR_BK2P, sBreakDeadTimeConfig->Break2Polarity);
 8002a22:	4c10      	ldr	r4, [pc, #64]	; (8002a64 <HAL_TIMEx_ConfigBreakDeadTime+0xc4>)
 8002a24:	4023      	ands	r3, r4
 8002a26:	6a4c      	ldr	r4, [r1, #36]	; 0x24
 8002a28:	4323      	orrs	r3, r4
      MODIFY_REG(tmpbdtr, TIM_BDTR_BK2BID, sBreakDeadTimeConfig->Break2AFMode);
 8002a2a:	4c0f      	ldr	r4, [pc, #60]	; (8002a68 <HAL_TIMEx_ConfigBreakDeadTime+0xc8>)
 8002a2c:	4023      	ands	r3, r4
 8002a2e:	6ac9      	ldr	r1, [r1, #44]	; 0x2c
 8002a30:	430b      	orrs	r3, r1
 8002a32:	e7e2      	b.n	80029fa <HAL_TIMEx_ConfigBreakDeadTime+0x5a>
  __HAL_LOCK(htim);
 8002a34:	2002      	movs	r0, #2
 8002a36:	e7e5      	b.n	8002a04 <HAL_TIMEx_ConfigBreakDeadTime+0x64>
 8002a38:	fffffcff 	.word	0xfffffcff
 8002a3c:	fffffbff 	.word	0xfffffbff
 8002a40:	fffff7ff 	.word	0xfffff7ff
 8002a44:	ffffefff 	.word	0xffffefff
 8002a48:	ffffdfff 	.word	0xffffdfff
 8002a4c:	ffffbfff 	.word	0xffffbfff
 8002a50:	fff0ffff 	.word	0xfff0ffff
 8002a54:	40012c00 	.word	0x40012c00
 8002a58:	efffffff 	.word	0xefffffff
 8002a5c:	ff0fffff 	.word	0xff0fffff
 8002a60:	feffffff 	.word	0xfeffffff
 8002a64:	fdffffff 	.word	0xfdffffff
 8002a68:	dfffffff 	.word	0xdfffffff

08002a6c <__libc_init_array>:
 8002a6c:	b570      	push	{r4, r5, r6, lr}
 8002a6e:	2600      	movs	r6, #0
 8002a70:	4d0c      	ldr	r5, [pc, #48]	; (8002aa4 <__libc_init_array+0x38>)
 8002a72:	4c0d      	ldr	r4, [pc, #52]	; (8002aa8 <__libc_init_array+0x3c>)
 8002a74:	1b64      	subs	r4, r4, r5
 8002a76:	10a4      	asrs	r4, r4, #2
 8002a78:	42a6      	cmp	r6, r4
 8002a7a:	d109      	bne.n	8002a90 <__libc_init_array+0x24>
 8002a7c:	2600      	movs	r6, #0
 8002a7e:	f000 f821 	bl	8002ac4 <_init>
 8002a82:	4d0a      	ldr	r5, [pc, #40]	; (8002aac <__libc_init_array+0x40>)
 8002a84:	4c0a      	ldr	r4, [pc, #40]	; (8002ab0 <__libc_init_array+0x44>)
 8002a86:	1b64      	subs	r4, r4, r5
 8002a88:	10a4      	asrs	r4, r4, #2
 8002a8a:	42a6      	cmp	r6, r4
 8002a8c:	d105      	bne.n	8002a9a <__libc_init_array+0x2e>
 8002a8e:	bd70      	pop	{r4, r5, r6, pc}
 8002a90:	00b3      	lsls	r3, r6, #2
 8002a92:	58eb      	ldr	r3, [r5, r3]
 8002a94:	4798      	blx	r3
 8002a96:	3601      	adds	r6, #1
 8002a98:	e7ee      	b.n	8002a78 <__libc_init_array+0xc>
 8002a9a:	00b3      	lsls	r3, r6, #2
 8002a9c:	58eb      	ldr	r3, [r5, r3]
 8002a9e:	4798      	blx	r3
 8002aa0:	3601      	adds	r6, #1
 8002aa2:	e7f2      	b.n	8002a8a <__libc_init_array+0x1e>
 8002aa4:	08002b84 	.word	0x08002b84
 8002aa8:	08002b84 	.word	0x08002b84
 8002aac:	08002b84 	.word	0x08002b84
 8002ab0:	08002b88 	.word	0x08002b88

08002ab4 <memset>:
 8002ab4:	0003      	movs	r3, r0
 8002ab6:	1882      	adds	r2, r0, r2
 8002ab8:	4293      	cmp	r3, r2
 8002aba:	d100      	bne.n	8002abe <memset+0xa>
 8002abc:	4770      	bx	lr
 8002abe:	7019      	strb	r1, [r3, #0]
 8002ac0:	3301      	adds	r3, #1
 8002ac2:	e7f9      	b.n	8002ab8 <memset+0x4>

08002ac4 <_init>:
 8002ac4:	b5f8      	push	{r3, r4, r5, r6, r7, lr}
 8002ac6:	46c0      	nop			; (mov r8, r8)
 8002ac8:	bcf8      	pop	{r3, r4, r5, r6, r7}
 8002aca:	bc08      	pop	{r3}
 8002acc:	469e      	mov	lr, r3
 8002ace:	4770      	bx	lr

08002ad0 <_fini>:
 8002ad0:	b5f8      	push	{r3, r4, r5, r6, r7, lr}
 8002ad2:	46c0      	nop			; (mov r8, r8)
 8002ad4:	bcf8      	pop	{r3, r4, r5, r6, r7}
 8002ad6:	bc08      	pop	{r3}
 8002ad8:	469e      	mov	lr, r3
 8002ada:	4770      	bx	lr
